bomb:     file format elf64-x86-64


Disassembly of section .init:

0000000000400b00 <_init>:
  400b00:       48 83 ec 08             sub    $0x8,%rsp
  400b04:       48 8b 05 ed 34 20 00    mov    0x2034ed(%rip),%rax        # 603ff8 <__gmon_start__>
  400b0b:       48 85 c0                test   %rax,%rax
  400b0e:       74 05                   je     400b15 <_init+0x15>
  400b10:       e8 db 01 00 00          call   400cf0 <__gmon_start__@plt>
  400b15:       48 83 c4 08             add    $0x8,%rsp
  400b19:       c3                      ret

Disassembly of section .plt:

0000000000400b20 <.plt>:
  400b20:       ff 35 e2 34 20 00       push   0x2034e2(%rip)        # 604008 <_GLOBAL_OFFSET_TABLE_+0x8>
  400b26:       ff 25 e4 34 20 00       jmp    *0x2034e4(%rip)        # 604010 <_GLOBAL_OFFSET_TABLE_+0x10>
  400b2c:       0f 1f 40 00             nopl   0x0(%rax)

0000000000400b30 <getenv@plt>:
  400b30:       ff 25 e2 34 20 00       jmp    *0x2034e2(%rip)        # 604018 <getenv@GLIBC_2.2.5>
  400b36:       68 00 00 00 00          push   $0x0
  400b3b:       e9 e0 ff ff ff          jmp    400b20 <.plt>

0000000000400b40 <strcasecmp@plt>:
  400b40:       ff 25 da 34 20 00       jmp    *0x2034da(%rip)        # 604020 <strcasecmp@GLIBC_2.2.5>
  400b46:       68 01 00 00 00          push   $0x1
  400b4b:       e9 d0 ff ff ff          jmp    400b20 <.plt>

0000000000400b50 <__errno_location@plt>:
  400b50:       ff 25 d2 34 20 00       jmp    *0x2034d2(%rip)        # 604028 <__errno_location@GLIBC_2.2.5>
  400b56:       68 02 00 00 00          push   $0x2
  400b5b:       e9 c0 ff ff ff          jmp    400b20 <.plt>

0000000000400b60 <strcpy@plt>:
  400b60:       ff 25 ca 34 20 00       jmp    *0x2034ca(%rip)        # 604030 <strcpy@GLIBC_2.2.5>
  400b66:       68 03 00 00 00          push   $0x3
  400b6b:       e9 b0 ff ff ff          jmp    400b20 <.plt>

0000000000400b70 <puts@plt>:
  400b70:       ff 25 c2 34 20 00       jmp    *0x2034c2(%rip)        # 604038 <puts@GLIBC_2.2.5>
  400b76:       68 04 00 00 00          push   $0x4
  400b7b:       e9 a0 ff ff ff          jmp    400b20 <.plt>

0000000000400b80 <write@plt>:
  400b80:       ff 25 ba 34 20 00       jmp    *0x2034ba(%rip)        # 604040 <write@GLIBC_2.2.5>
  400b86:       68 05 00 00 00          push   $0x5
  400b8b:       e9 90 ff ff ff          jmp    400b20 <.plt>

0000000000400b90 <__stack_chk_fail@plt>:
  400b90:       ff 25 b2 34 20 00       jmp    *0x2034b2(%rip)        # 604048 <__stack_chk_fail@GLIBC_2.4>
  400b96:       68 06 00 00 00          push   $0x6
  400b9b:       e9 80 ff ff ff          jmp    400b20 <.plt>

0000000000400ba0 <alarm@plt>:
  400ba0:       ff 25 aa 34 20 00       jmp    *0x2034aa(%rip)        # 604050 <alarm@GLIBC_2.2.5>
  400ba6:       68 07 00 00 00          push   $0x7
  400bab:       e9 70 ff ff ff          jmp    400b20 <.plt>

0000000000400bb0 <close@plt>:
  400bb0:       ff 25 a2 34 20 00       jmp    *0x2034a2(%rip)        # 604058 <close@GLIBC_2.2.5>
  400bb6:       68 08 00 00 00          push   $0x8
  400bbb:       e9 60 ff ff ff          jmp    400b20 <.plt>

0000000000400bc0 <read@plt>:
  400bc0:       ff 25 9a 34 20 00       jmp    *0x20349a(%rip)        # 604060 <read@GLIBC_2.2.5>
  400bc6:       68 09 00 00 00          push   $0x9
  400bcb:       e9 50 ff ff ff          jmp    400b20 <.plt>

0000000000400bd0 <__libc_start_main@plt>:
  400bd0:       ff 25 92 34 20 00       jmp    *0x203492(%rip)        # 604068 <__libc_start_main@GLIBC_2.2.5>
  400bd6:       68 0a 00 00 00          push   $0xa
  400bdb:       e9 40 ff ff ff          jmp    400b20 <.plt>

0000000000400be0 <fgets@plt>:
  400be0:       ff 25 8a 34 20 00       jmp    *0x20348a(%rip)        # 604070 <fgets@GLIBC_2.2.5>
  400be6:       68 0b 00 00 00          push   $0xb
  400beb:       e9 30 ff ff ff          jmp    400b20 <.plt>

0000000000400bf0 <signal@plt>:
  400bf0:       ff 25 82 34 20 00       jmp    *0x203482(%rip)        # 604078 <signal@GLIBC_2.2.5>
  400bf6:       68 0c 00 00 00          push   $0xc
  400bfb:       e9 20 ff ff ff          jmp    400b20 <.plt>

0000000000400c00 <gethostbyname@plt>:
  400c00:       ff 25 7a 34 20 00       jmp    *0x20347a(%rip)        # 604080 <gethostbyname@GLIBC_2.2.5>
  400c06:       68 0d 00 00 00          push   $0xd
  400c0b:       e9 10 ff ff ff          jmp    400b20 <.plt>

0000000000400c10 <__memmove_chk@plt>:
  400c10:       ff 25 72 34 20 00       jmp    *0x203472(%rip)        # 604088 <__memmove_chk@GLIBC_2.3.4>
  400c16:       68 0e 00 00 00          push   $0xe
  400c1b:       e9 00 ff ff ff          jmp    400b20 <.plt>

0000000000400c20 <strtol@plt>:
  400c20:       ff 25 6a 34 20 00       jmp    *0x20346a(%rip)        # 604090 <strtol@GLIBC_2.2.5>
  400c26:       68 0f 00 00 00          push   $0xf
  400c2b:       e9 f0 fe ff ff          jmp    400b20 <.plt>

0000000000400c30 <fflush@plt>:
  400c30:       ff 25 62 34 20 00       jmp    *0x203462(%rip)        # 604098 <fflush@GLIBC_2.2.5>
  400c36:       68 10 00 00 00          push   $0x10
  400c3b:       e9 e0 fe ff ff          jmp    400b20 <.plt>

0000000000400c40 <__isoc99_sscanf@plt>:
  400c40:       ff 25 5a 34 20 00       jmp    *0x20345a(%rip)        # 6040a0 <__isoc99_sscanf@GLIBC_2.7>
  400c46:       68 11 00 00 00          push   $0x11
  400c4b:       e9 d0 fe ff ff          jmp    400b20 <.plt>

0000000000400c50 <__printf_chk@plt>:
  400c50:       ff 25 52 34 20 00       jmp    *0x203452(%rip)        # 6040a8 <__printf_chk@GLIBC_2.3.4>
  400c56:       68 12 00 00 00          push   $0x12
  400c5b:       e9 c0 fe ff ff          jmp    400b20 <.plt>

0000000000400c60 <fopen@plt>:
  400c60:       ff 25 4a 34 20 00       jmp    *0x20344a(%rip)        # 6040b0 <fopen@GLIBC_2.2.5>
  400c66:       68 13 00 00 00          push   $0x13
  400c6b:       e9 b0 fe ff ff          jmp    400b20 <.plt>

0000000000400c70 <gethostname@plt>:
  400c70:       ff 25 42 34 20 00       jmp    *0x203442(%rip)        # 6040b8 <gethostname@GLIBC_2.2.5>
  400c76:       68 14 00 00 00          push   $0x14
  400c7b:       e9 a0 fe ff ff          jmp    400b20 <.plt>

0000000000400c80 <exit@plt>:
  400c80:       ff 25 3a 34 20 00       jmp    *0x20343a(%rip)        # 6040c0 <exit@GLIBC_2.2.5>
  400c86:       68 15 00 00 00          push   $0x15
  400c8b:       e9 90 fe ff ff          jmp    400b20 <.plt>

0000000000400c90 <connect@plt>:
  400c90:       ff 25 32 34 20 00       jmp    *0x203432(%rip)        # 6040c8 <connect@GLIBC_2.2.5>
  400c96:       68 16 00 00 00          push   $0x16
  400c9b:       e9 80 fe ff ff          jmp    400b20 <.plt>

0000000000400ca0 <__fprintf_chk@plt>:
  400ca0:       ff 25 2a 34 20 00       jmp    *0x20342a(%rip)        # 6040d0 <__fprintf_chk@GLIBC_2.3.4>
  400ca6:       68 17 00 00 00          push   $0x17
  400cab:       e9 70 fe ff ff          jmp    400b20 <.plt>

0000000000400cb0 <sleep@plt>:
  400cb0:       ff 25 22 34 20 00       jmp    *0x203422(%rip)        # 6040d8 <sleep@GLIBC_2.2.5>
  400cb6:       68 18 00 00 00          push   $0x18
  400cbb:       e9 60 fe ff ff          jmp    400b20 <.plt>

0000000000400cc0 <__ctype_b_loc@plt>:
  400cc0:       ff 25 1a 34 20 00       jmp    *0x20341a(%rip)        # 6040e0 <__ctype_b_loc@GLIBC_2.3>
  400cc6:       68 19 00 00 00          push   $0x19
  400ccb:       e9 50 fe ff ff          jmp    400b20 <.plt>

0000000000400cd0 <__sprintf_chk@plt>:
  400cd0:       ff 25 12 34 20 00       jmp    *0x203412(%rip)        # 6040e8 <__sprintf_chk@GLIBC_2.3.4>
  400cd6:       68 1a 00 00 00          push   $0x1a
  400cdb:       e9 40 fe ff ff          jmp    400b20 <.plt>

0000000000400ce0 <socket@plt>:
  400ce0:       ff 25 0a 34 20 00       jmp    *0x20340a(%rip)        # 6040f0 <socket@GLIBC_2.2.5>
  400ce6:       68 1b 00 00 00          push   $0x1b
  400ceb:       e9 30 fe ff ff          jmp    400b20 <.plt>

Disassembly of section .plt.got:

0000000000400cf0 <__gmon_start__@plt>:
  400cf0:       ff 25 02 33 20 00       jmp    *0x203302(%rip)        # 603ff8 <__gmon_start__>
  400cf6:       66 90                   xchg   %ax,%ax

Disassembly of section .text:

0000000000400d00 <_start>:
  400d00:       31 ed                   xor    %ebp,%ebp
  400d02:       49 89 d1                mov    %rdx,%r9
  400d05:       5e                      pop    %rsi
  400d06:       48 89 e2                mov    %rsp,%rdx
  400d09:       48 83 e4 f0             and    $0xfffffffffffffff0,%rsp
  400d0d:       50                      push   %rax
  400d0e:       54                      push   %rsp
  400d0f:       49 c7 c0 00 25 40 00    mov    $0x402500,%r8
  400d16:       48 c7 c1 90 24 40 00    mov    $0x402490,%rcx
  400d1d:       48 c7 c7 f6 0d 40 00    mov    $0x400df6,%rdi
  400d24:       e8 a7 fe ff ff          call   400bd0 <__libc_start_main@plt>
  400d29:       f4                      hlt
  400d2a:       66 0f 1f 44 00 00       nopw   0x0(%rax,%rax,1)

0000000000400d30 <deregister_tm_clones>:
  400d30:       b8 87 4f 60 00          mov    $0x604f87,%eax
  400d35:       55                      push   %rbp
  400d36:       48 2d 80 4f 60 00       sub    $0x604f80,%rax
  400d3c:       48 83 f8 0e             cmp    $0xe,%rax
  400d40:       48 89 e5                mov    %rsp,%rbp
  400d43:       76 1b                   jbe    400d60 <deregister_tm_clones+0x30>
  400d45:       b8 00 00 00 00          mov    $0x0,%eax
  400d4a:       48 85 c0                test   %rax,%rax
  400d4d:       74 11                   je     400d60 <deregister_tm_clones+0x30>
  400d4f:       5d                      pop    %rbp
  400d50:       bf 80 4f 60 00          mov    $0x604f80,%edi
  400d55:       ff e0                   jmp    *%rax
  400d57:       66 0f 1f 84 00 00 00    nopw   0x0(%rax,%rax,1)
  400d5e:       00 00
  400d60:       5d                      pop    %rbp
  400d61:       c3                      ret
  400d62:       0f 1f 40 00             nopl   0x0(%rax)
  400d66:       66 2e 0f 1f 84 00 00    cs nopw 0x0(%rax,%rax,1)
  400d6d:       00 00 00

0000000000400d70 <register_tm_clones>:
  400d70:       be 80 4f 60 00          mov    $0x604f80,%esi
  400d75:       55                      push   %rbp
  400d76:       48 81 ee 80 4f 60 00    sub    $0x604f80,%rsi
  400d7d:       48 c1 fe 03             sar    $0x3,%rsi
  400d81:       48 89 e5                mov    %rsp,%rbp
  400d84:       48 89 f0                mov    %rsi,%rax
  400d87:       48 c1 e8 3f             shr    $0x3f,%rax
  400d8b:       48 01 c6                add    %rax,%rsi
  400d8e:       48 d1 fe                sar    %rsi
  400d91:       74 15                   je     400da8 <register_tm_clones+0x38>
  400d93:       b8 00 00 00 00          mov    $0x0,%eax
  400d98:       48 85 c0                test   %rax,%rax
  400d9b:       74 0b                   je     400da8 <register_tm_clones+0x38>
  400d9d:       5d                      pop    %rbp
  400d9e:       bf 80 4f 60 00          mov    $0x604f80,%edi
  400da3:       ff e0                   jmp    *%rax
  400da5:       0f 1f 00                nopl   (%rax)
  400da8:       5d                      pop    %rbp
  400da9:       c3                      ret
  400daa:       66 0f 1f 44 00 00       nopw   0x0(%rax,%rax,1)

0000000000400db0 <__do_global_dtors_aux>:
  400db0:       80 3d f1 41 20 00 00    cmpb   $0x0,0x2041f1(%rip)        # 604fa8 <completed.7594>
  400db7:       75 11                   jne    400dca <__do_global_dtors_aux+0x1a>
  400db9:       55                      push   %rbp
  400dba:       48 89 e5                mov    %rsp,%rbp
  400dbd:       e8 6e ff ff ff          call   400d30 <deregister_tm_clones>
  400dc2:       5d                      pop    %rbp
  400dc3:       c6 05 de 41 20 00 01    movb   $0x1,0x2041de(%rip)        # 604fa8 <completed.7594>
  400dca:       f3 c3                   repz ret
  400dcc:       0f 1f 40 00             nopl   0x0(%rax)

0000000000400dd0 <frame_dummy>:
  400dd0:       bf 20 3e 60 00          mov    $0x603e20,%edi
  400dd5:       48 83 3f 00             cmpq   $0x0,(%rdi)
  400dd9:       75 05                   jne    400de0 <frame_dummy+0x10>
  400ddb:       eb 93                   jmp    400d70 <register_tm_clones>
  400ddd:       0f 1f 00                nopl   (%rax)
  400de0:       b8 00 00 00 00          mov    $0x0,%eax
  400de5:       48 85 c0                test   %rax,%rax
  400de8:       74 f1                   je     400ddb <frame_dummy+0xb>
  400dea:       55                      push   %rbp
  400deb:       48 89 e5                mov    %rsp,%rbp
  400dee:       ff d0                   call   *%rax
  400df0:       5d                      pop    %rbp
  400df1:       e9 7a ff ff ff          jmp    400d70 <register_tm_clones>

0000000000400df6 <main>:
  400df6:       53                      push   %rbx
  400df7:       83 ff 01                cmp    $0x1,%edi
  400dfa:       75 10                   jne    400e0c <main+0x16>
  400dfc:       48 8b 05 8d 41 20 00    mov    0x20418d(%rip),%rax        # 604f90 <stdin@GLIBC_2.2.5>
  400e03:       48 89 05 a6 41 20 00    mov    %rax,0x2041a6(%rip)        # 604fb0 <infile>
  400e0a:       eb 63                   jmp    400e6f <main+0x79>
  400e0c:       48 89 f3                mov    %rsi,%rbx
  400e0f:       83 ff 02                cmp    $0x2,%edi
  400e12:       75 3a                   jne    400e4e <main+0x58>
  400e14:       48 8b 7e 08             mov    0x8(%rsi),%rdi
  400e18:       be 4c 2b 40 00          mov    $0x402b4c,%esi
  400e1d:       e8 3e fe ff ff          call   400c60 <fopen@plt>
  400e22:       48 89 05 87 41 20 00    mov    %rax,0x204187(%rip)        # 604fb0 <infile>
  400e29:       48 85 c0                test   %rax,%rax
  400e2c:       75 41                   jne    400e6f <main+0x79>
  400e2e:       48 8b 4b 08             mov    0x8(%rbx),%rcx
  400e32:       48 8b 13                mov    (%rbx),%rdx
  400e35:       be 14 25 40 00          mov    $0x402514,%esi
  400e3a:       bf 01 00 00 00          mov    $0x1,%edi
  400e3f:       e8 0c fe ff ff          call   400c50 <__printf_chk@plt>
  400e44:       bf 08 00 00 00          mov    $0x8,%edi
  400e49:       e8 32 fe ff ff          call   400c80 <exit@plt>
  400e4e:       48 8b 16                mov    (%rsi),%rdx
  400e51:       be 31 25 40 00          mov    $0x402531,%esi
  400e56:       bf 01 00 00 00          mov    $0x1,%edi
  400e5b:       b8 00 00 00 00          mov    $0x0,%eax
  400e60:       e8 eb fd ff ff          call   400c50 <__printf_chk@plt>
  400e65:       bf 08 00 00 00          mov    $0x8,%edi
  400e6a:       e8 11 fe ff ff          call   400c80 <exit@plt>
  400e6f:       e8 d0 05 00 00          call   401444 <initialize_bomb>
  400e74:       bf 98 25 40 00          mov    $0x402598,%edi
  400e79:       e8 f2 fc ff ff          call   400b70 <puts@plt>
  400e7e:       bf d8 25 40 00          mov    $0x4025d8,%edi
  400e83:       e8 e8 fc ff ff          call   400b70 <puts@plt>
  400e88:       e8 94 08 00 00          call   401721 <read_line>
  400e8d:       48 89 c7                mov    %rax,%rdi
  400e90:       e8 98 00 00 00          call   400f2d <phase_1>
  400e95:       e8 ad 09 00 00          call   401847 <phase_defused>
  400e9a:       bf 08 26 40 00          mov    $0x402608,%edi
  400e9f:       e8 cc fc ff ff          call   400b70 <puts@plt>
  400ea4:       e8 78 08 00 00          call   401721 <read_line>
  400ea9:       48 89 c7                mov    %rax,%rdi
  400eac:       e8 98 00 00 00          call   400f49 <phase_2>
  400eb1:       e8 91 09 00 00          call   401847 <phase_defused>
  400eb6:       bf 4b 25 40 00          mov    $0x40254b,%edi
  400ebb:       e8 b0 fc ff ff          call   400b70 <puts@plt>
  400ec0:       e8 5c 08 00 00          call   401721 <read_line>
  400ec5:       48 89 c7                mov    %rax,%rdi
  400ec8:       e8 e0 00 00 00          call   400fad <phase_3>
  400ecd:       e8 75 09 00 00          call   401847 <phase_defused>
  400ed2:       bf 69 25 40 00          mov    $0x402569,%edi
  400ed7:       e8 94 fc ff ff          call   400b70 <puts@plt>
  400edc:       e8 40 08 00 00          call   401721 <read_line>
  400ee1:       48 89 c7                mov    %rax,%rdi
  400ee4:       e8 d2 01 00 00          call   4010bb <phase_4>
  400ee9:       e8 59 09 00 00          call   401847 <phase_defused>
  400eee:       bf 38 26 40 00          mov    $0x402638,%edi
  400ef3:       e8 78 fc ff ff          call   400b70 <puts@plt>
  400ef8:       e8 24 08 00 00          call   401721 <read_line>
  400efd:       48 89 c7                mov    %rax,%rdi
  400f00:       e8 29 02 00 00          call   40112e <phase_5>
  400f05:       e8 3d 09 00 00          call   401847 <phase_defused>
  400f0a:       bf 78 25 40 00          mov    $0x402578,%edi
  400f0f:       e8 5c fc ff ff          call   400b70 <puts@plt>
  400f14:       e8 08 08 00 00          call   401721 <read_line>
  400f19:       48 89 c7                mov    %rax,%rdi
  400f1c:       e8 8a 02 00 00          call   4011ab <phase_6>
  400f21:       e8 21 09 00 00          call   401847 <phase_defused>
  400f26:       b8 00 00 00 00          mov    $0x0,%eax
  400f2b:       5b                      pop    %rbx
  400f2c:       c3                      ret

0000000000400f2d <phase_1>:
  400f2d:       48 83 ec 08             sub    $0x8,%rsp
  400f31:       be 60 26 40 00          mov    $0x402660,%esi
  400f36:       e8 a2 04 00 00          call   4013dd <strings_not_equal>
  400f3b:       85 c0                   test   %eax,%eax
  400f3d:       74 05                   je     400f44 <phase_1+0x17>
  400f3f:       e8 68 07 00 00          call   4016ac <explode_bomb>
  400f44:       48 83 c4 08             add    $0x8,%rsp
  400f48:       c3                      ret

0000000000400f49 <phase_2>:
  400f49:       55                      push   %rbp
  400f4a:       53                      push   %rbx
  400f4b:       48 83 ec 28             sub    $0x28,%rsp
  400f4f:       64 48 8b 04 25 28 00    mov    %fs:0x28,%rax
  400f56:       00 00
  400f58:       48 89 44 24 18          mov    %rax,0x18(%rsp)
  400f5d:       31 c0                   xor    %eax,%eax
  400f5f:       48 89 e6                mov    %rsp,%rsi
  400f62:       e8 7b 07 00 00          call   4016e2 <read_six_numbers>
  400f67:       83 3c 24 01             cmpl   $0x1,(%rsp)
  400f6b:       74 05                   je     400f72 <phase_2+0x29>
  400f6d:       e8 3a 07 00 00          call   4016ac <explode_bomb>
  400f72:       48 89 e3                mov    %rsp,%rbx
  400f75:       48 8d 6c 24 14          lea    0x14(%rsp),%rbp
  400f7a:       8b 03                   mov    (%rbx),%eax
  400f7c:       01 c0                   add    %eax,%eax
  400f7e:       39 43 04                cmp    %eax,0x4(%rbx)
  400f81:       74 05                   je     400f88 <phase_2+0x3f>
  400f83:       e8 24 07 00 00          call   4016ac <explode_bomb>
  400f88:       48 83 c3 04             add    $0x4,%rbx
  400f8c:       48 39 eb                cmp    %rbp,%rbx
  400f8f:       75 e9                   jne    400f7a <phase_2+0x31>
  400f91:       48 8b 44 24 18          mov    0x18(%rsp),%rax
  400f96:       64 48 33 04 25 28 00    xor    %fs:0x28,%rax
  400f9d:       00 00
  400f9f:       74 05                   je     400fa6 <phase_2+0x5d>
  400fa1:       e8 ea fb ff ff          call   400b90 <__stack_chk_fail@plt>
  400fa6:       48 83 c4 28             add    $0x28,%rsp
  400faa:       5b                      pop    %rbx
  400fab:       5d                      pop    %rbp
  400fac:       c3                      ret

0000000000400fad <phase_3>:
  400fad:       48 83 ec 18             sub    $0x18,%rsp
  400fb1:       64 48 8b 04 25 28 00    mov    %fs:0x28,%rax
  400fb8:       00 00
  400fba:       48 89 44 24 08          mov    %rax,0x8(%rsp)
  400fbf:       31 c0                   xor    %eax,%eax
  400fc1:       48 8d 4c 24 04          lea    0x4(%rsp),%rcx
  400fc6:       48 89 e2                mov    %rsp,%rdx
  400fc9:       be 5d 29 40 00          mov    $0x40295d,%esi
  400fce:       e8 6d fc ff ff          call   400c40 <__isoc99_sscanf@plt>
  400fd3:       83 f8 01                cmp    $0x1,%eax
  400fd6:       7f 05                   jg     400fdd <phase_3+0x30>
  400fd8:       e8 cf 06 00 00          call   4016ac <explode_bomb>
  400fdd:       83 3c 24 07             cmpl   $0x7,(%rsp)
  400fe1:       77 65                   ja     401048 <phase_3+0x9b>
  400fe3:       8b 04 24                mov    (%rsp),%eax
  400fe6:       ff 24 c5 c0 26 40 00    jmp    *0x4026c0(,%rax,8)
  400fed:       b8 2b 03 00 00          mov    $0x32b,%eax
  400ff2:       eb 05                   jmp    400ff9 <phase_3+0x4c>
  400ff4:       b8 00 00 00 00          mov    $0x0,%eax
  400ff9:       2d 94 02 00 00          sub    $0x294,%eax
  400ffe:       eb 05                   jmp    401005 <phase_3+0x58>
  401000:       b8 00 00 00 00          mov    $0x0,%eax
  401005:       05 5e 02 00 00          add    $0x25e,%eax
  40100a:       eb 05                   jmp    401011 <phase_3+0x64>
  40100c:       b8 00 00 00 00          mov    $0x0,%eax
  401011:       2d d8 01 00 00          sub    $0x1d8,%eax
  401016:       eb 05                   jmp    40101d <phase_3+0x70>
  401018:       b8 00 00 00 00          mov    $0x0,%eax
  40101d:       05 d8 01 00 00          add    $0x1d8,%eax
  401022:       eb 05                   jmp    401029 <phase_3+0x7c>
  401024:       b8 00 00 00 00          mov    $0x0,%eax
  401029:       2d d8 01 00 00          sub    $0x1d8,%eax
  40102e:       eb 05                   jmp    401035 <phase_3+0x88>
  401030:       b8 00 00 00 00          mov    $0x0,%eax
  401035:       05 d8 01 00 00          add    $0x1d8,%eax
  40103a:       eb 05                   jmp    401041 <phase_3+0x94>
  40103c:       b8 00 00 00 00          mov    $0x0,%eax
  401041:       2d d8 01 00 00          sub    $0x1d8,%eax
  401046:       eb 0a                   jmp    401052 <phase_3+0xa5>
  401048:       e8 5f 06 00 00          call   4016ac <explode_bomb>
  40104d:       b8 00 00 00 00          mov    $0x0,%eax
  401052:       83 3c 24 05             cmpl   $0x5,(%rsp)
  401056:       7f 06                   jg     40105e <phase_3+0xb1>
  401058:       3b 44 24 04             cmp    0x4(%rsp),%eax
  40105c:       74 05                   je     401063 <phase_3+0xb6>
  40105e:       e8 49 06 00 00          call   4016ac <explode_bomb>
  401063:       48 8b 44 24 08          mov    0x8(%rsp),%rax
  401068:       64 48 33 04 25 28 00    xor    %fs:0x28,%rax
  40106f:       00 00
  401071:       74 05                   je     401078 <phase_3+0xcb>
  401073:       e8 18 fb ff ff          call   400b90 <__stack_chk_fail@plt>
  401078:       48 83 c4 18             add    $0x18,%rsp
  40107c:       c3                      ret

000000000040107d <func4>:
  40107d:       48 83 ec 08             sub    $0x8,%rsp
  401081:       89 d0                   mov    %edx,%eax
  401083:       29 f0                   sub    %esi,%eax
  401085:       89 c1                   mov    %eax,%ecx
  401087:       c1 e9 1f                shr    $0x1f,%ecx
  40108a:       01 c8                   add    %ecx,%eax
  40108c:       d1 f8                   sar    %eax
  40108e:       8d 0c 30                lea    (%rax,%rsi,1),%ecx
  401091:       39 f9                   cmp    %edi,%ecx
  401093:       7e 0c                   jle    4010a1 <func4+0x24>
  401095:       8d 51 ff                lea    -0x1(%rcx),%edx
  401098:       e8 e0 ff ff ff          call   40107d <func4>
  40109d:       01 c0                   add    %eax,%eax
  40109f:       eb 15                   jmp    4010b6 <func4+0x39>
  4010a1:       b8 00 00 00 00          mov    $0x0,%eax
  4010a6:       39 f9                   cmp    %edi,%ecx
  4010a8:       7d 0c                   jge    4010b6 <func4+0x39>
  4010aa:       8d 71 01                lea    0x1(%rcx),%esi
  4010ad:       e8 cb ff ff ff          call   40107d <func4>
  4010b2:       8d 44 00 01             lea    0x1(%rax,%rax,1),%eax
  4010b6:       48 83 c4 08             add    $0x8,%rsp
  4010ba:       c3                      ret

00000000004010bb <phase_4>:
  4010bb:       48 83 ec 18             sub    $0x18,%rsp
  4010bf:       64 48 8b 04 25 28 00    mov    %fs:0x28,%rax
  4010c6:       00 00
  4010c8:       48 89 44 24 08          mov    %rax,0x8(%rsp)
  4010cd:       31 c0                   xor    %eax,%eax
  4010cf:       48 8d 4c 24 04          lea    0x4(%rsp),%rcx
  4010d4:       48 89 e2                mov    %rsp,%rdx
  4010d7:       be 5d 29 40 00          mov    $0x40295d,%esi
  4010dc:       e8 5f fb ff ff          call   400c40 <__isoc99_sscanf@plt>
  4010e1:       83 f8 02                cmp    $0x2,%eax
  4010e4:       75 06                   jne    4010ec <phase_4+0x31>
  4010e6:       83 3c 24 0e             cmpl   $0xe,(%rsp)
  4010ea:       76 05                   jbe    4010f1 <phase_4+0x36>
  4010ec:       e8 bb 05 00 00          call   4016ac <explode_bomb>
  4010f1:       ba 0e 00 00 00          mov    $0xe,%edx
  4010f6:       be 00 00 00 00          mov    $0x0,%esi
  4010fb:       8b 3c 24                mov    (%rsp),%edi
  4010fe:       e8 7a ff ff ff          call   40107d <func4>
  401103:       83 f8 03                cmp    $0x3,%eax
  401106:       75 07                   jne    40110f <phase_4+0x54>
  401108:       83 7c 24 04 03          cmpl   $0x3,0x4(%rsp)
  40110d:       74 05                   je     401114 <phase_4+0x59>
  40110f:       e8 98 05 00 00          call   4016ac <explode_bomb>
  401114:       48 8b 44 24 08          mov    0x8(%rsp),%rax
  401119:       64 48 33 04 25 28 00    xor    %fs:0x28,%rax
  401120:       00 00
  401122:       74 05                   je     401129 <phase_4+0x6e>
  401124:       e8 67 fa ff ff          call   400b90 <__stack_chk_fail@plt>
  401129:       48 83 c4 18             add    $0x18,%rsp
  40112d:       c3                      ret

000000000040112e <phase_5>:
  40112e:       53                      push   %rbx
  40112f:       48 83 ec 10             sub    $0x10,%rsp
  401133:       48 89 fb                mov    %rdi,%rbx
  401136:       64 48 8b 04 25 28 00    mov    %fs:0x28,%rax
  40113d:       00 00
  40113f:       48 89 44 24 08          mov    %rax,0x8(%rsp)
  401144:       31 c0                   xor    %eax,%eax
  401146:       e8 74 02 00 00          call   4013bf <string_length>
  40114b:       83 f8 06                cmp    $0x6,%eax
  40114e:       74 05                   je     401155 <phase_5+0x27>
  401150:       e8 57 05 00 00          call   4016ac <explode_bomb>
  401155:       b8 00 00 00 00          mov    $0x0,%eax
  40115a:       0f b6 14 03             movzbl (%rbx,%rax,1),%edx
  40115e:       83 e2 0f                and    $0xf,%edx
  401161:       0f b6 92 00 27 40 00    movzbl 0x402700(%rdx),%edx
  401168:       88 14 04                mov    %dl,(%rsp,%rax,1)
  40116b:       48 83 c0 01             add    $0x1,%rax
  40116f:       48 83 f8 06             cmp    $0x6,%rax
  401173:       75 e5                   jne    40115a <phase_5+0x2c>
  401175:       c6 44 24 06 00          movb   $0x0,0x6(%rsp)
  40117a:       be b6 26 40 00          mov    $0x4026b6,%esi
  40117f:       48 89 e7                mov    %rsp,%rdi
  401182:       e8 56 02 00 00          call   4013dd <strings_not_equal>
  401187:       85 c0                   test   %eax,%eax
  401189:       74 05                   je     401190 <phase_5+0x62>
  40118b:       e8 1c 05 00 00          call   4016ac <explode_bomb>
  401190:       48 8b 44 24 08          mov    0x8(%rsp),%rax
  401195:       64 48 33 04 25 28 00    xor    %fs:0x28,%rax
  40119c:       00 00
  40119e:       74 05                   je     4011a5 <phase_5+0x77>
  4011a0:       e8 eb f9 ff ff          call   400b90 <__stack_chk_fail@plt>
  4011a5:       48 83 c4 10             add    $0x10,%rsp
  4011a9:       5b                      pop    %rbx
  4011aa:       c3                      ret

00000000004011ab <phase_6>:
  4011ab:       41 55                   push   %r13
  4011ad:       41 54                   push   %r12
  4011af:       55                      push   %rbp
  4011b0:       53                      push   %rbx
  4011b1:       48 83 ec 68             sub    $0x68,%rsp
  4011b5:       64 48 8b 04 25 28 00    mov    %fs:0x28,%rax
  4011bc:       00 00
  4011be:       48 89 44 24 58          mov    %rax,0x58(%rsp)
  4011c3:       31 c0                   xor    %eax,%eax
  4011c5:       48 89 e6                mov    %rsp,%rsi
  4011c8:       e8 15 05 00 00          call   4016e2 <read_six_numbers>
  4011cd:       49 89 e4                mov    %rsp,%r12
  4011d0:       41 bd 00 00 00 00       mov    $0x0,%r13d
  4011d6:       4c 89 e5                mov    %r12,%rbp
  4011d9:       41 8b 04 24             mov    (%r12),%eax
  4011dd:       83 e8 01                sub    $0x1,%eax
  4011e0:       83 f8 05                cmp    $0x5,%eax
  4011e3:       76 05                   jbe    4011ea <phase_6+0x3f>
  4011e5:       e8 c2 04 00 00          call   4016ac <explode_bomb>
  4011ea:       41 83 c5 01             add    $0x1,%r13d
  4011ee:       41 83 fd 06             cmp    $0x6,%r13d
  4011f2:       74 3d                   je     401231 <phase_6+0x86>
  4011f4:       44 89 eb                mov    %r13d,%ebx
  4011f7:       48 63 c3                movslq %ebx,%rax
  4011fa:       8b 04 84                mov    (%rsp,%rax,4),%eax
  4011fd:       39 45 00                cmp    %eax,0x0(%rbp)
  401200:       75 05                   jne    401207 <phase_6+0x5c>
  401202:       e8 a5 04 00 00          call   4016ac <explode_bomb>
  401207:       83 c3 01                add    $0x1,%ebx
  40120a:       83 fb 05                cmp    $0x5,%ebx
  40120d:       7e e8                   jle    4011f7 <phase_6+0x4c>
  40120f:       49 83 c4 04             add    $0x4,%r12
  401213:       eb c1                   jmp    4011d6 <phase_6+0x2b>
  401215:       48 8b 52 08             mov    0x8(%rdx),%rdx
  401219:       83 c0 01                add    $0x1,%eax
  40121c:       39 c8                   cmp    %ecx,%eax
  40121e:       75 f5                   jne    401215 <phase_6+0x6a>
  401220:       48 89 54 74 20          mov    %rdx,0x20(%rsp,%rsi,2)
  401225:       48 83 c6 04             add    $0x4,%rsi
  401229:       48 83 fe 18             cmp    $0x18,%rsi
  40122d:       75 07                   jne    401236 <phase_6+0x8b>
  40122f:       eb 19                   jmp    40124a <phase_6+0x9f>
  401231:       be 00 00 00 00          mov    $0x0,%esi
  401236:       8b 0c 34                mov    (%rsp,%rsi,1),%ecx
  401239:       b8 01 00 00 00          mov    $0x1,%eax
  40123e:       ba 00 43 60 00          mov    $0x604300,%edx
  401243:       83 f9 01                cmp    $0x1,%ecx
  401246:       7f cd                   jg     401215 <phase_6+0x6a>
  401248:       eb d6                   jmp    401220 <phase_6+0x75>
  40124a:       48 8b 5c 24 20          mov    0x20(%rsp),%rbx
  40124f:       48 8d 44 24 20          lea    0x20(%rsp),%rax
  401254:       48 8d 74 24 48          lea    0x48(%rsp),%rsi
  401259:       48 89 d9                mov    %rbx,%rcx
  40125c:       48 8b 50 08             mov    0x8(%rax),%rdx
  401260:       48 89 51 08             mov    %rdx,0x8(%rcx)
  401264:       48 83 c0 08             add    $0x8,%rax
  401268:       48 89 d1                mov    %rdx,%rcx
  40126b:       48 39 f0                cmp    %rsi,%rax
  40126e:       75 ec                   jne    40125c <phase_6+0xb1>
  401270:       48 c7 42 08 00 00 00    movq   $0x0,0x8(%rdx)
  401277:       00
  401278:       bd 05 00 00 00          mov    $0x5,%ebp
  40127d:       48 8b 43 08             mov    0x8(%rbx),%rax
  401281:       8b 00                   mov    (%rax),%eax
  401283:       39 03                   cmp    %eax,(%rbx)
  401285:       7d 05                   jge    40128c <phase_6+0xe1>
  401287:       e8 20 04 00 00          call   4016ac <explode_bomb>
  40128c:       48 8b 5b 08             mov    0x8(%rbx),%rbx
  401290:       83 ed 01                sub    $0x1,%ebp
  401293:       75 e8                   jne    40127d <phase_6+0xd2>
  401295:       48 8b 44 24 58          mov    0x58(%rsp),%rax
  40129a:       64 48 33 04 25 28 00    xor    %fs:0x28,%rax
  4012a1:       00 00
  4012a3:       74 05                   je     4012aa <phase_6+0xff>
  4012a5:       e8 e6 f8 ff ff          call   400b90 <__stack_chk_fail@plt>
  4012aa:       48 83 c4 68             add    $0x68,%rsp
  4012ae:       5b                      pop    %rbx
  4012af:       5d                      pop    %rbp
  4012b0:       41 5c                   pop    %r12
  4012b2:       41 5d                   pop    %r13
  4012b4:       c3                      ret

00000000004012b5 <fun7>:
  4012b5:       48 83 ec 08             sub    $0x8,%rsp
  4012b9:       48 85 ff                test   %rdi,%rdi
  4012bc:       74 2b                   je     4012e9 <fun7+0x34>
  4012be:       8b 17                   mov    (%rdi),%edx
  4012c0:       39 f2                   cmp    %esi,%edx
  4012c2:       7e 0d                   jle    4012d1 <fun7+0x1c>
  4012c4:       48 8b 7f 08             mov    0x8(%rdi),%rdi
  4012c8:       e8 e8 ff ff ff          call   4012b5 <fun7>
  4012cd:       01 c0                   add    %eax,%eax
  4012cf:       eb 1d                   jmp    4012ee <fun7+0x39>
  4012d1:       b8 00 00 00 00          mov    $0x0,%eax
  4012d6:       39 f2                   cmp    %esi,%edx
  4012d8:       74 14                   je     4012ee <fun7+0x39>
  4012da:       48 8b 7f 10             mov    0x10(%rdi),%rdi
  4012de:       e8 d2 ff ff ff          call   4012b5 <fun7>
  4012e3:       8d 44 00 01             lea    0x1(%rax,%rax,1),%eax
  4012e7:       eb 05                   jmp    4012ee <fun7+0x39>
  4012e9:       b8 ff ff ff ff          mov    $0xffffffff,%eax
  4012ee:       48 83 c4 08             add    $0x8,%rsp
  4012f2:       c3                      ret

00000000004012f3 <secret_phase>:
  4012f3:       53                      push   %rbx
  4012f4:       e8 28 04 00 00          call   401721 <read_line>
  4012f9:       ba 0a 00 00 00          mov    $0xa,%edx
  4012fe:       be 00 00 00 00          mov    $0x0,%esi
  401303:       48 89 c7                mov    %rax,%rdi
  401306:       e8 15 f9 ff ff          call   400c20 <strtol@plt>
  40130b:       48 89 c3                mov    %rax,%rbx
  40130e:       8d 40 ff                lea    -0x1(%rax),%eax
  401311:       3d e8 03 00 00          cmp    $0x3e8,%eax
  401316:       76 05                   jbe    40131d <secret_phase+0x2a>
  401318:       e8 8f 03 00 00          call   4016ac <explode_bomb>
  40131d:       89 de                   mov    %ebx,%esi
  40131f:       bf 20 41 60 00          mov    $0x604120,%edi
  401324:       e8 8c ff ff ff          call   4012b5 <fun7>
  401329:       83 f8 04                cmp    $0x4,%eax
  40132c:       74 05                   je     401333 <secret_phase+0x40>
  40132e:       e8 79 03 00 00          call   4016ac <explode_bomb>
  401333:       bf 90 26 40 00          mov    $0x402690,%edi
  401338:       e8 33 f8 ff ff          call   400b70 <puts@plt>
  40133d:       e8 05 05 00 00          call   401847 <phase_defused>
  401342:       5b                      pop    %rbx
  401343:       c3                      ret

0000000000401344 <sig_handler>:
  401344:       48 83 ec 08             sub    $0x8,%rsp
  401348:       bf 10 27 40 00          mov    $0x402710,%edi
  40134d:       e8 1e f8 ff ff          call   400b70 <puts@plt>
  401352:       bf 03 00 00 00          mov    $0x3,%edi
  401357:       e8 54 f9 ff ff          call   400cb0 <sleep@plt>
  40135c:       be d9 28 40 00          mov    $0x4028d9,%esi
  401361:       bf 01 00 00 00          mov    $0x1,%edi
  401366:       b8 00 00 00 00          mov    $0x0,%eax
  40136b:       e8 e0 f8 ff ff          call   400c50 <__printf_chk@plt>
  401370:       48 8b 3d 09 3c 20 00    mov    0x203c09(%rip),%rdi        # 604f80 <stdout@GLIBC_2.2.5>
  401377:       e8 b4 f8 ff ff          call   400c30 <fflush@plt>
  40137c:       bf 01 00 00 00          mov    $0x1,%edi
  401381:       e8 2a f9 ff ff          call   400cb0 <sleep@plt>
  401386:       bf e1 28 40 00          mov    $0x4028e1,%edi
  40138b:       e8 e0 f7 ff ff          call   400b70 <puts@plt>
  401390:       bf 10 00 00 00          mov    $0x10,%edi
  401395:       e8 e6 f8 ff ff          call   400c80 <exit@plt>

000000000040139a <invalid_phase>:
  40139a:       48 83 ec 08             sub    $0x8,%rsp
  40139e:       48 89 fa                mov    %rdi,%rdx
  4013a1:       be e9 28 40 00          mov    $0x4028e9,%esi
  4013a6:       bf 01 00 00 00          mov    $0x1,%edi
  4013ab:       b8 00 00 00 00          mov    $0x0,%eax
  4013b0:       e8 9b f8 ff ff          call   400c50 <__printf_chk@plt>
  4013b5:       bf 08 00 00 00          mov    $0x8,%edi
  4013ba:       e8 c1 f8 ff ff          call   400c80 <exit@plt>

00000000004013bf <string_length>:
  4013bf:       80 3f 00                cmpb   $0x0,(%rdi)
  4013c2:       74 13                   je     4013d7 <string_length+0x18>
  4013c4:       b8 00 00 00 00          mov    $0x0,%eax
  4013c9:       48 83 c7 01             add    $0x1,%rdi
  4013cd:       83 c0 01                add    $0x1,%eax
  4013d0:       80 3f 00                cmpb   $0x0,(%rdi)
  4013d3:       75 f4                   jne    4013c9 <string_length+0xa>
  4013d5:       f3 c3                   repz ret
  4013d7:       b8 00 00 00 00          mov    $0x0,%eax
  4013dc:       c3                      ret

00000000004013dd <strings_not_equal>:
  4013dd:       41 54                   push   %r12
  4013df:       55                      push   %rbp
  4013e0:       53                      push   %rbx
  4013e1:       48 89 fb                mov    %rdi,%rbx
  4013e4:       48 89 f5                mov    %rsi,%rbp
  4013e7:       e8 d3 ff ff ff          call   4013bf <string_length>
  4013ec:       41 89 c4                mov    %eax,%r12d
  4013ef:       48 89 ef                mov    %rbp,%rdi
  4013f2:       e8 c8 ff ff ff          call   4013bf <string_length>
  4013f7:       ba 01 00 00 00          mov    $0x1,%edx
  4013fc:       41 39 c4                cmp    %eax,%r12d
  4013ff:       75 3c                   jne    40143d <strings_not_equal+0x60>
  401401:       0f b6 03                movzbl (%rbx),%eax
  401404:       84 c0                   test   %al,%al
  401406:       74 22                   je     40142a <strings_not_equal+0x4d>
  401408:       3a 45 00                cmp    0x0(%rbp),%al
  40140b:       74 07                   je     401414 <strings_not_equal+0x37>
  40140d:       eb 22                   jmp    401431 <strings_not_equal+0x54>
  40140f:       3a 45 00                cmp    0x0(%rbp),%al
  401412:       75 24                   jne    401438 <strings_not_equal+0x5b>
  401414:       48 83 c3 01             add    $0x1,%rbx
  401418:       48 83 c5 01             add    $0x1,%rbp
  40141c:       0f b6 03                movzbl (%rbx),%eax
  40141f:       84 c0                   test   %al,%al
  401421:       75 ec                   jne    40140f <strings_not_equal+0x32>
  401423:       ba 00 00 00 00          mov    $0x0,%edx
  401428:       eb 13                   jmp    40143d <strings_not_equal+0x60>
  40142a:       ba 00 00 00 00          mov    $0x0,%edx
  40142f:       eb 0c                   jmp    40143d <strings_not_equal+0x60>
  401431:       ba 01 00 00 00          mov    $0x1,%edx
  401436:       eb 05                   jmp    40143d <strings_not_equal+0x60>
  401438:       ba 01 00 00 00          mov    $0x1,%edx
  40143d:       89 d0                   mov    %edx,%eax
  40143f:       5b                      pop    %rbx
  401440:       5d                      pop    %rbp
  401441:       41 5c                   pop    %r12
  401443:       c3                      ret

0000000000401444 <initialize_bomb>:
  401444:       53                      push   %rbx
  401445:       48 81 ec 50 20 00 00    sub    $0x2050,%rsp
  40144c:       64 48 8b 04 25 28 00    mov    %fs:0x28,%rax
  401453:       00 00
  401455:       48 89 84 24 48 20 00    mov    %rax,0x2048(%rsp)
  40145c:       00
  40145d:       31 c0                   xor    %eax,%eax
  40145f:       be 44 13 40 00          mov    $0x401344,%esi
  401464:       bf 02 00 00 00          mov    $0x2,%edi
  401469:       e8 82 f7 ff ff          call   400bf0 <signal@plt>
  40146e:       be 40 00 00 00          mov    $0x40,%esi
  401473:       48 89 e7                mov    %rsp,%rdi
  401476:       e8 f5 f7 ff ff          call   400c70 <gethostname@plt>
  40147b:       85 c0                   test   %eax,%eax
  40147d:       75 13                   jne    401492 <initialize_bomb+0x4e>
  40147f:       48 8b 3d fa 32 20 00    mov    0x2032fa(%rip),%rdi        # 604780 <host_table>
  401486:       bb 88 47 60 00          mov    $0x604788,%ebx
  40148b:       48 85 ff                test   %rdi,%rdi
  40148e:       75 16                   jne    4014a6 <initialize_bomb+0x62>
  401490:       eb 52                   jmp    4014e4 <initialize_bomb+0xa0>
  401492:       bf 48 27 40 00          mov    $0x402748,%edi
  401497:       e8 d4 f6 ff ff          call   400b70 <puts@plt>
  40149c:       bf 08 00 00 00          mov    $0x8,%edi
  4014a1:       e8 da f7 ff ff          call   400c80 <exit@plt>
  4014a6:       48 89 e6                mov    %rsp,%rsi
  4014a9:       e8 92 f6 ff ff          call   400b40 <strcasecmp@plt>
  4014ae:       85 c0                   test   %eax,%eax
  4014b0:       74 46                   je     4014f8 <initialize_bomb+0xb4>
  4014b2:       48 83 c3 08             add    $0x8,%rbx
  4014b6:       48 8b 7b f8             mov    -0x8(%rbx),%rdi
  4014ba:       48 85 ff                test   %rdi,%rdi
  4014bd:       75 e7                   jne    4014a6 <initialize_bomb+0x62>
  4014bf:       eb 23                   jmp    4014e4 <initialize_bomb+0xa0>
  4014c1:       48 8d 54 24 40          lea    0x40(%rsp),%rdx
  4014c6:       be fa 28 40 00          mov    $0x4028fa,%esi
  4014cb:       bf 01 00 00 00          mov    $0x1,%edi
  4014d0:       b8 00 00 00 00          mov    $0x0,%eax
  4014d5:       e8 76 f7 ff ff          call   400c50 <__printf_chk@plt>
  4014da:       bf 08 00 00 00          mov    $0x8,%edi
  4014df:       e8 9c f7 ff ff          call   400c80 <exit@plt>
  4014e4:       bf 80 27 40 00          mov    $0x402780,%edi
  4014e9:       e8 82 f6 ff ff          call   400b70 <puts@plt>
  4014ee:       bf 08 00 00 00          mov    $0x8,%edi
  4014f3:       e8 88 f7 ff ff          call   400c80 <exit@plt>
  4014f8:       48 8d 7c 24 40          lea    0x40(%rsp),%rdi
  4014fd:       e8 37 0d 00 00          call   402239 <init_driver>
  401502:       85 c0                   test   %eax,%eax
  401504:       78 bb                   js     4014c1 <initialize_bomb+0x7d>
  401506:       48 8b 84 24 48 20 00    mov    0x2048(%rsp),%rax
  40150d:       00
  40150e:       64 48 33 04 25 28 00    xor    %fs:0x28,%rax
  401515:       00 00
  401517:       74 05                   je     40151e <initialize_bomb+0xda>
  401519:       e8 72 f6 ff ff          call   400b90 <__stack_chk_fail@plt>
  40151e:       48 81 c4 50 20 00 00    add    $0x2050,%rsp
  401525:       5b                      pop    %rbx
  401526:       c3                      ret

0000000000401527 <initialize_bomb_solve>:
  401527:       f3 c3                   repz ret

0000000000401529 <blank_line>:
  401529:       55                      push   %rbp
  40152a:       53                      push   %rbx
  40152b:       48 83 ec 08             sub    $0x8,%rsp
  40152f:       48 89 fd                mov    %rdi,%rbp
  401532:       eb 17                   jmp    40154b <blank_line+0x22>
  401534:       e8 87 f7 ff ff          call   400cc0 <__ctype_b_loc@plt>
  401539:       48 83 c5 01             add    $0x1,%rbp
  40153d:       48 0f be db             movsbq %bl,%rbx
  401541:       48 8b 00                mov    (%rax),%rax
  401544:       f6 44 58 01 20          testb  $0x20,0x1(%rax,%rbx,2)
  401549:       74 0f                   je     40155a <blank_line+0x31>
  40154b:       0f b6 5d 00             movzbl 0x0(%rbp),%ebx
  40154f:       84 db                   test   %bl,%bl
  401551:       75 e1                   jne    401534 <blank_line+0xb>
  401553:       b8 01 00 00 00          mov    $0x1,%eax
  401558:       eb 05                   jmp    40155f <blank_line+0x36>
  40155a:       b8 00 00 00 00          mov    $0x0,%eax
  40155f:       48 83 c4 08             add    $0x8,%rsp
  401563:       5b                      pop    %rbx
  401564:       5d                      pop    %rbp
  401565:       c3                      ret

0000000000401566 <skip>:
  401566:       53                      push   %rbx
  401567:       48 63 05 3e 3a 20 00    movslq 0x203a3e(%rip),%rax        # 604fac <num_input_strings>
  40156e:       48 8d 3c 80             lea    (%rax,%rax,4),%rdi
  401572:       48 c1 e7 04             shl    $0x4,%rdi
  401576:       48 81 c7 c0 4f 60 00    add    $0x604fc0,%rdi
  40157d:       48 8b 15 2c 3a 20 00    mov    0x203a2c(%rip),%rdx        # 604fb0 <infile>
  401584:       be 50 00 00 00          mov    $0x50,%esi
  401589:       e8 52 f6 ff ff          call   400be0 <fgets@plt>
  40158e:       48 89 c3                mov    %rax,%rbx
  401591:       48 85 c0                test   %rax,%rax
  401594:       74 0c                   je     4015a2 <skip+0x3c>
  401596:       48 89 c7                mov    %rax,%rdi
  401599:       e8 8b ff ff ff          call   401529 <blank_line>
  40159e:       85 c0                   test   %eax,%eax
  4015a0:       75 c5                   jne    401567 <skip+0x1>
  4015a2:       48 89 d8                mov    %rbx,%rax
  4015a5:       5b                      pop    %rbx
  4015a6:       c3                      ret

00000000004015a7 <send_msg>:
  4015a7:       48 81 ec 18 40 00 00    sub    $0x4018,%rsp
  4015ae:       41 89 f8                mov    %edi,%r8d
  4015b1:       64 48 8b 04 25 28 00    mov    %fs:0x28,%rax
  4015b8:       00 00
  4015ba:       48 89 84 24 08 40 00    mov    %rax,0x4008(%rsp)
  4015c1:       00
  4015c2:       31 c0                   xor    %eax,%eax
  4015c4:       8b 35 e2 39 20 00       mov    0x2039e2(%rip),%esi        # 604fac <num_input_strings>
  4015ca:       8d 46 ff                lea    -0x1(%rsi),%eax
  4015cd:       48 98                   cltq
  4015cf:       48 8d 14 80             lea    (%rax,%rax,4),%rdx
  4015d3:       48 c1 e2 04             shl    $0x4,%rdx
  4015d7:       48 81 c2 c0 4f 60 00    add    $0x604fc0,%rdx
  4015de:       b8 00 00 00 00          mov    $0x0,%eax
  4015e3:       48 c7 c1 ff ff ff ff    mov    $0xffffffffffffffff,%rcx
  4015ea:       48 89 d7                mov    %rdx,%rdi
  4015ed:       f2 ae                   repnz scas %es:(%rdi),%al
  4015ef:       48 f7 d1                not    %rcx
  4015f2:       48 83 c1 63             add    $0x63,%rcx
  4015f6:       48 81 f9 00 20 00 00    cmp    $0x2000,%rcx
  4015fd:       76 19                   jbe    401618 <send_msg+0x71>
  4015ff:       be b8 27 40 00          mov    $0x4027b8,%esi
  401604:       bf 01 00 00 00          mov    $0x1,%edi
  401609:       e8 42 f6 ff ff          call   400c50 <__printf_chk@plt>
  40160e:       bf 08 00 00 00          mov    $0x8,%edi
  401613:       e8 68 f6 ff ff          call   400c80 <exit@plt>
  401618:       45 85 c0                test   %r8d,%r8d
  40161b:       41 b9 1c 29 40 00       mov    $0x40291c,%r9d
  401621:       b8 14 29 40 00          mov    $0x402914,%eax
  401626:       4c 0f 45 c8             cmovne %rax,%r9
  40162a:       52                      push   %rdx
  40162b:       56                      push   %rsi
  40162c:       44 8b 05 2d 31 20 00    mov    0x20312d(%rip),%r8d        # 604760 <bomb_id>
  401633:       b9 25 29 40 00          mov    $0x402925,%ecx
  401638:       ba 00 20 00 00          mov    $0x2000,%edx
  40163d:       be 01 00 00 00          mov    $0x1,%esi
  401642:       48 8d 7c 24 10          lea    0x10(%rsp),%rdi
  401647:       b8 00 00 00 00          mov    $0x0,%eax
  40164c:       e8 7f f6 ff ff          call   400cd0 <__sprintf_chk@plt>
  401651:       48 8d 8c 24 10 20 00    lea    0x2010(%rsp),%rcx
  401658:       00
  401659:       ba 00 00 00 00          mov    $0x0,%edx
  40165e:       48 8d 74 24 10          lea    0x10(%rsp),%rsi
  401663:       bf 60 43 60 00          mov    $0x604360,%edi
  401668:       e8 a1 0d 00 00          call   40240e <driver_post>
  40166d:       48 83 c4 10             add    $0x10,%rsp
  401671:       85 c0                   test   %eax,%eax
  401673:       79 17                   jns    40168c <send_msg+0xe5>
  401675:       48 8d bc 24 00 20 00    lea    0x2000(%rsp),%rdi
  40167c:       00
  40167d:       e8 ee f4 ff ff          call   400b70 <puts@plt>
  401682:       bf 00 00 00 00          mov    $0x0,%edi
  401687:       e8 f4 f5 ff ff          call   400c80 <exit@plt>
  40168c:       48 8b 84 24 08 40 00    mov    0x4008(%rsp),%rax
  401693:       00
  401694:       64 48 33 04 25 28 00    xor    %fs:0x28,%rax
  40169b:       00 00
  40169d:       74 05                   je     4016a4 <send_msg+0xfd>
  40169f:       e8 ec f4 ff ff          call   400b90 <__stack_chk_fail@plt>
  4016a4:       48 81 c4 18 40 00 00    add    $0x4018,%rsp
  4016ab:       c3                      ret

00000000004016ac <explode_bomb>:
  4016ac:       48 83 ec 08             sub    $0x8,%rsp
  4016b0:       bf 31 29 40 00          mov    $0x402931,%edi
  4016b5:       e8 b6 f4 ff ff          call   400b70 <puts@plt>
  4016ba:       bf 3a 29 40 00          mov    $0x40293a,%edi
  4016bf:       e8 ac f4 ff ff          call   400b70 <puts@plt>
  4016c4:       bf 00 00 00 00          mov    $0x0,%edi
  4016c9:       e8 d9 fe ff ff          call   4015a7 <send_msg>
  4016ce:       bf e0 27 40 00          mov    $0x4027e0,%edi
  4016d3:       e8 98 f4 ff ff          call   400b70 <puts@plt>
  4016d8:       bf 08 00 00 00          mov    $0x8,%edi
  4016dd:       e8 9e f5 ff ff          call   400c80 <exit@plt>

00000000004016e2 <read_six_numbers>:
  4016e2:       48 83 ec 08             sub    $0x8,%rsp
  4016e6:       48 89 f2                mov    %rsi,%rdx
  4016e9:       48 8d 4e 04             lea    0x4(%rsi),%rcx
  4016ed:       48 8d 46 14             lea    0x14(%rsi),%rax
  4016f1:       50                      push   %rax
  4016f2:       48 8d 46 10             lea    0x10(%rsi),%rax
  4016f6:       50                      push   %rax
  4016f7:       4c 8d 4e 0c             lea    0xc(%rsi),%r9
  4016fb:       4c 8d 46 08             lea    0x8(%rsi),%r8
  4016ff:       be 51 29 40 00          mov    $0x402951,%esi
  401704:       b8 00 00 00 00          mov    $0x0,%eax
  401709:       e8 32 f5 ff ff          call   400c40 <__isoc99_sscanf@plt>
  40170e:       48 83 c4 10             add    $0x10,%rsp
  401712:       83 f8 05                cmp    $0x5,%eax
  401715:       7f 05                   jg     40171c <read_six_numbers+0x3a>
  401717:       e8 90 ff ff ff          call   4016ac <explode_bomb>
  40171c:       48 83 c4 08             add    $0x8,%rsp
  401720:       c3                      ret

0000000000401721 <read_line>:
  401721:       48 83 ec 08             sub    $0x8,%rsp
  401725:       b8 00 00 00 00          mov    $0x0,%eax
  40172a:       e8 37 fe ff ff          call   401566 <skip>
  40172f:       48 85 c0                test   %rax,%rax
  401732:       75 6e                   jne    4017a2 <read_line+0x81>
  401734:       48 8b 05 55 38 20 00    mov    0x203855(%rip),%rax        # 604f90 <stdin@GLIBC_2.2.5>
  40173b:       48 39 05 6e 38 20 00    cmp    %rax,0x20386e(%rip)        # 604fb0 <infile>
  401742:       75 14                   jne    401758 <read_line+0x37>
  401744:       bf 63 29 40 00          mov    $0x402963,%edi
  401749:       e8 22 f4 ff ff          call   400b70 <puts@plt>
  40174e:       bf 08 00 00 00          mov    $0x8,%edi
  401753:       e8 28 f5 ff ff          call   400c80 <exit@plt>
  401758:       bf 81 29 40 00          mov    $0x402981,%edi
  40175d:       e8 ce f3 ff ff          call   400b30 <getenv@plt>
  401762:       48 85 c0                test   %rax,%rax
  401765:       74 0a                   je     401771 <read_line+0x50>
  401767:       bf 00 00 00 00          mov    $0x0,%edi
  40176c:       e8 0f f5 ff ff          call   400c80 <exit@plt>
  401771:       48 8b 05 18 38 20 00    mov    0x203818(%rip),%rax        # 604f90 <stdin@GLIBC_2.2.5>
  401778:       48 89 05 31 38 20 00    mov    %rax,0x203831(%rip)        # 604fb0 <infile>
  40177f:       b8 00 00 00 00          mov    $0x0,%eax
  401784:       e8 dd fd ff ff          call   401566 <skip>
  401789:       48 85 c0                test   %rax,%rax
  40178c:       75 14                   jne    4017a2 <read_line+0x81>
  40178e:       bf 63 29 40 00          mov    $0x402963,%edi
  401793:       e8 d8 f3 ff ff          call   400b70 <puts@plt>
  401798:       bf 00 00 00 00          mov    $0x0,%edi
  40179d:       e8 de f4 ff ff          call   400c80 <exit@plt>
  4017a2:       8b 35 04 38 20 00       mov    0x203804(%rip),%esi        # 604fac <num_input_strings>
  4017a8:       48 63 c6                movslq %esi,%rax
  4017ab:       48 8d 14 80             lea    (%rax,%rax,4),%rdx
  4017af:       48 c1 e2 04             shl    $0x4,%rdx
  4017b3:       48 81 c2 c0 4f 60 00    add    $0x604fc0,%rdx
  4017ba:       b8 00 00 00 00          mov    $0x0,%eax
  4017bf:       48 c7 c1 ff ff ff ff    mov    $0xffffffffffffffff,%rcx
  4017c6:       48 89 d7                mov    %rdx,%rdi
  4017c9:       f2 ae                   repnz scas %es:(%rdi),%al
  4017cb:       48 f7 d1                not    %rcx
  4017ce:       48 83 e9 01             sub    $0x1,%rcx
  4017d2:       83 f9 4e                cmp    $0x4e,%ecx
  4017d5:       7e 46                   jle    40181d <read_line+0xfc>
  4017d7:       bf 8c 29 40 00          mov    $0x40298c,%edi
  4017dc:       e8 8f f3 ff ff          call   400b70 <puts@plt>
  4017e1:       8b 05 c5 37 20 00       mov    0x2037c5(%rip),%eax        # 604fac <num_input_strings>
  4017e7:       8d 50 01                lea    0x1(%rax),%edx
  4017ea:       89 15 bc 37 20 00       mov    %edx,0x2037bc(%rip)        # 604fac <num_input_strings>
  4017f0:       48 98                   cltq
  4017f2:       48 6b c0 50             imul   $0x50,%rax,%rax
  4017f6:       48 bf 2a 2a 2a 74 72    movabs $0x636e7572742a2a2a,%rdi
  4017fd:       75 6e 63
  401800:       48 89 b8 c0 4f 60 00    mov    %rdi,0x604fc0(%rax)
  401807:       48 bf 61 74 65 64 2a    movabs $0x2a2a2a64657461,%rdi
  40180e:       2a 2a 00
  401811:       48 89 b8 c8 4f 60 00    mov    %rdi,0x604fc8(%rax)
  401818:       e8 8f fe ff ff          call   4016ac <explode_bomb>
  40181d:       83 e9 01                sub    $0x1,%ecx
  401820:       48 63 c9                movslq %ecx,%rcx
  401823:       48 63 c6                movslq %esi,%rax
  401826:       48 8d 04 80             lea    (%rax,%rax,4),%rax
  40182a:       48 c1 e0 04             shl    $0x4,%rax
  40182e:       c6 84 01 c0 4f 60 00    movb   $0x0,0x604fc0(%rcx,%rax,1)
  401835:       00
  401836:       8d 46 01                lea    0x1(%rsi),%eax
  401839:       89 05 6d 37 20 00       mov    %eax,0x20376d(%rip)        # 604fac <num_input_strings>
  40183f:       48 89 d0                mov    %rdx,%rax
  401842:       48 83 c4 08             add    $0x8,%rsp
  401846:       c3                      ret

0000000000401847 <phase_defused>:
  401847:       48 83 ec 78             sub    $0x78,%rsp
  40184b:       64 48 8b 04 25 28 00    mov    %fs:0x28,%rax
  401852:       00 00
  401854:       48 89 44 24 68          mov    %rax,0x68(%rsp)
  401859:       31 c0                   xor    %eax,%eax
  40185b:       bf 01 00 00 00          mov    $0x1,%edi
  401860:       e8 42 fd ff ff          call   4015a7 <send_msg>
  401865:       83 3d 40 37 20 00 06    cmpl   $0x6,0x203740(%rip)        # 604fac <num_input_strings>
  40186c:       75 6d                   jne    4018db <phase_defused+0x94>
  40186e:       4c 8d 44 24 10          lea    0x10(%rsp),%r8
  401873:       48 8d 4c 24 0c          lea    0xc(%rsp),%rcx
  401878:       48 8d 54 24 08          lea    0x8(%rsp),%rdx
  40187d:       be a7 29 40 00          mov    $0x4029a7,%esi
  401882:       bf b0 50 60 00          mov    $0x6050b0,%edi
  401887:       b8 00 00 00 00          mov    $0x0,%eax
  40188c:       e8 af f3 ff ff          call   400c40 <__isoc99_sscanf@plt>
  401891:       83 f8 03                cmp    $0x3,%eax
  401894:       75 31                   jne    4018c7 <phase_defused+0x80>
  401896:       be b0 29 40 00          mov    $0x4029b0,%esi
  40189b:       48 8d 7c 24 10          lea    0x10(%rsp),%rdi
  4018a0:       e8 38 fb ff ff          call   4013dd <strings_not_equal>
  4018a5:       85 c0                   test   %eax,%eax
  4018a7:       75 1e                   jne    4018c7 <phase_defused+0x80>
  4018a9:       bf 08 28 40 00          mov    $0x402808,%edi
  4018ae:       e8 bd f2 ff ff          call   400b70 <puts@plt>
  4018b3:       bf 30 28 40 00          mov    $0x402830,%edi
  4018b8:       e8 b3 f2 ff ff          call   400b70 <puts@plt>
  4018bd:       b8 00 00 00 00          mov    $0x0,%eax
  4018c2:       e8 2c fa ff ff          call   4012f3 <secret_phase>
  4018c7:       bf 68 28 40 00          mov    $0x402868,%edi
  4018cc:       e8 9f f2 ff ff          call   400b70 <puts@plt>
  4018d1:       bf 98 28 40 00          mov    $0x402898,%edi
  4018d6:       e8 95 f2 ff ff          call   400b70 <puts@plt>
  4018db:       48 8b 44 24 68          mov    0x68(%rsp),%rax
  4018e0:       64 48 33 04 25 28 00    xor    %fs:0x28,%rax
  4018e7:       00 00
  4018e9:       74 05                   je     4018f0 <phase_defused+0xa9>
  4018eb:       e8 a0 f2 ff ff          call   400b90 <__stack_chk_fail@plt>
  4018f0:       48 83 c4 78             add    $0x78,%rsp
  4018f4:       c3                      ret

00000000004018f5 <sigalrm_handler>:
  4018f5:       48 83 ec 08             sub    $0x8,%rsp
  4018f9:       b9 00 00 00 00          mov    $0x0,%ecx
  4018fe:       ba 90 33 40 00          mov    $0x403390,%edx
  401903:       be 01 00 00 00          mov    $0x1,%esi
  401908:       48 8b 3d 91 36 20 00    mov    0x203691(%rip),%rdi        # 604fa0 <stderr@GLIBC_2.2.5>
  40190f:       b8 00 00 00 00          mov    $0x0,%eax
  401914:       e8 87 f3 ff ff          call   400ca0 <__fprintf_chk@plt>
  401919:       bf 01 00 00 00          mov    $0x1,%edi
  40191e:       e8 5d f3 ff ff          call   400c80 <exit@plt>

0000000000401923 <rio_readlineb>:
  401923:       41 56                   push   %r14
  401925:       41 55                   push   %r13
  401927:       41 54                   push   %r12
  401929:       55                      push   %rbp
  40192a:       53                      push   %rbx
  40192b:       48 83 ec 10             sub    $0x10,%rsp
  40192f:       48 89 fb                mov    %rdi,%rbx
  401932:       49 89 f5                mov    %rsi,%r13
  401935:       49 89 d6                mov    %rdx,%r14
  401938:       64 48 8b 04 25 28 00    mov    %fs:0x28,%rax
  40193f:       00 00
  401941:       48 89 44 24 08          mov    %rax,0x8(%rsp)
  401946:       31 c0                   xor    %eax,%eax
  401948:       41 bc 01 00 00 00       mov    $0x1,%r12d
  40194e:       48 8d 6f 10             lea    0x10(%rdi),%rbp
  401952:       48 83 fa 01             cmp    $0x1,%rdx
  401956:       77 2c                   ja     401984 <rio_readlineb+0x61>
  401958:       eb 6d                   jmp    4019c7 <rio_readlineb+0xa4>
  40195a:       ba 00 20 00 00          mov    $0x2000,%edx
  40195f:       48 89 ee                mov    %rbp,%rsi
  401962:       8b 3b                   mov    (%rbx),%edi
  401964:       e8 57 f2 ff ff          call   400bc0 <read@plt>
  401969:       89 43 04                mov    %eax,0x4(%rbx)
  40196c:       85 c0                   test   %eax,%eax
  40196e:       79 0c                   jns    40197c <rio_readlineb+0x59>
  401970:       e8 db f1 ff ff          call   400b50 <__errno_location@plt>
  401975:       83 38 04                cmpl   $0x4,(%rax)
  401978:       74 0a                   je     401984 <rio_readlineb+0x61>
  40197a:       eb 6c                   jmp    4019e8 <rio_readlineb+0xc5>
  40197c:       85 c0                   test   %eax,%eax
  40197e:       74 71                   je     4019f1 <rio_readlineb+0xce>
  401980:       48 89 6b 08             mov    %rbp,0x8(%rbx)
  401984:       8b 43 04                mov    0x4(%rbx),%eax
  401987:       85 c0                   test   %eax,%eax
  401989:       7e cf                   jle    40195a <rio_readlineb+0x37>
  40198b:       48 8b 53 08             mov    0x8(%rbx),%rdx
  40198f:       0f b6 0a                movzbl (%rdx),%ecx
  401992:       88 4c 24 07             mov    %cl,0x7(%rsp)
  401996:       48 83 c2 01             add    $0x1,%rdx
  40199a:       48 89 53 08             mov    %rdx,0x8(%rbx)
  40199e:       83 e8 01                sub    $0x1,%eax
  4019a1:       89 43 04                mov    %eax,0x4(%rbx)
  4019a4:       49 83 c5 01             add    $0x1,%r13
  4019a8:       41 88 4d ff             mov    %cl,-0x1(%r13)
  4019ac:       80 f9 0a                cmp    $0xa,%cl
  4019af:       75 0a                   jne    4019bb <rio_readlineb+0x98>
  4019b1:       eb 14                   jmp    4019c7 <rio_readlineb+0xa4>
  4019b3:       41 83 fc 01             cmp    $0x1,%r12d
  4019b7:       75 0e                   jne    4019c7 <rio_readlineb+0xa4>
  4019b9:       eb 16                   jmp    4019d1 <rio_readlineb+0xae>
  4019bb:       41 83 c4 01             add    $0x1,%r12d
  4019bf:       49 63 c4                movslq %r12d,%rax
  4019c2:       4c 39 f0                cmp    %r14,%rax
  4019c5:       72 bd                   jb     401984 <rio_readlineb+0x61>
  4019c7:       41 c6 45 00 00          movb   $0x0,0x0(%r13)
  4019cc:       49 63 c4                movslq %r12d,%rax
  4019cf:       eb 05                   jmp    4019d6 <rio_readlineb+0xb3>
  4019d1:       b8 00 00 00 00          mov    $0x0,%eax
  4019d6:       48 8b 4c 24 08          mov    0x8(%rsp),%rcx
  4019db:       64 48 33 0c 25 28 00    xor    %fs:0x28,%rcx
  4019e2:       00 00
  4019e4:       74 22                   je     401a08 <rio_readlineb+0xe5>
  4019e6:       eb 1b                   jmp    401a03 <rio_readlineb+0xe0>
  4019e8:       48 c7 c0 ff ff ff ff    mov    $0xffffffffffffffff,%rax
  4019ef:       eb 05                   jmp    4019f6 <rio_readlineb+0xd3>
  4019f1:       b8 00 00 00 00          mov    $0x0,%eax
  4019f6:       85 c0                   test   %eax,%eax
  4019f8:       74 b9                   je     4019b3 <rio_readlineb+0x90>
  4019fa:       48 c7 c0 ff ff ff ff    mov    $0xffffffffffffffff,%rax
  401a01:       eb d3                   jmp    4019d6 <rio_readlineb+0xb3>
  401a03:       e8 88 f1 ff ff          call   400b90 <__stack_chk_fail@plt>
  401a08:       48 83 c4 10             add    $0x10,%rsp
  401a0c:       5b                      pop    %rbx
  401a0d:       5d                      pop    %rbp
  401a0e:       41 5c                   pop    %r12
  401a10:       41 5d                   pop    %r13
  401a12:       41 5e                   pop    %r14
  401a14:       c3                      ret

0000000000401a15 <submitr>:
  401a15:       41 57                   push   %r15
  401a17:       41 56                   push   %r14
  401a19:       41 55                   push   %r13
  401a1b:       41 54                   push   %r12
  401a1d:       55                      push   %rbp
  401a1e:       53                      push   %rbx
  401a1f:       48 81 ec 68 a0 00 00    sub    $0xa068,%rsp
  401a26:       48 89 fd                mov    %rdi,%rbp
  401a29:       41 89 f5                mov    %esi,%r13d
  401a2c:       48 89 54 24 08          mov    %rdx,0x8(%rsp)
  401a31:       48 89 4c 24 10          mov    %rcx,0x10(%rsp)
  401a36:       4c 89 44 24 18          mov    %r8,0x18(%rsp)
  401a3b:       4c 89 cb                mov    %r9,%rbx
  401a3e:       4c 8b bc 24 a0 a0 00    mov    0xa0a0(%rsp),%r15
  401a45:       00
  401a46:       64 48 8b 04 25 28 00    mov    %fs:0x28,%rax
  401a4d:       00 00
  401a4f:       48 89 84 24 58 a0 00    mov    %rax,0xa058(%rsp)
  401a56:       00
  401a57:       31 c0                   xor    %eax,%eax
  401a59:       c7 44 24 2c 00 00 00    movl   $0x0,0x2c(%rsp)
  401a60:       00
  401a61:       ba 00 00 00 00          mov    $0x0,%edx
  401a66:       be 01 00 00 00          mov    $0x1,%esi
  401a6b:       bf 02 00 00 00          mov    $0x2,%edi
  401a70:       e8 6b f2 ff ff          call   400ce0 <socket@plt>
  401a75:       85 c0                   test   %eax,%eax
  401a77:       79 50                   jns    401ac9 <submitr+0xb4>
  401a79:       48 b8 45 72 72 6f 72    movabs $0x43203a726f727245,%rax
  401a80:       3a 20 43
  401a83:       49 89 07                mov    %rax,(%r15)
  401a86:       48 b8 6c 69 65 6e 74    movabs $0x6e7520746e65696c,%rax
  401a8d:       20 75 6e
  401a90:       49 89 47 08             mov    %rax,0x8(%r15)
  401a94:       48 b8 61 62 6c 65 20    movabs $0x206f7420656c6261,%rax
  401a9b:       74 6f 20
  401a9e:       49 89 47 10             mov    %rax,0x10(%r15)
  401aa2:       48 b8 63 72 65 61 74    movabs $0x7320657461657263,%rax
  401aa9:       65 20 73
  401aac:       49 89 47 18             mov    %rax,0x18(%r15)
  401ab0:       41 c7 47 20 6f 63 6b    movl   $0x656b636f,0x20(%r15)
  401ab7:       65
  401ab8:       66 41 c7 47 24 74 00    movw   $0x74,0x24(%r15)
  401abf:       b8 ff ff ff ff          mov    $0xffffffff,%eax
  401ac4:       e9 15 06 00 00          jmp    4020de <submitr+0x6c9>
  401ac9:       41 89 c4                mov    %eax,%r12d
  401acc:       48 89 ef                mov    %rbp,%rdi
  401acf:       e8 2c f1 ff ff          call   400c00 <gethostbyname@plt>
  401ad4:       48 85 c0                test   %rax,%rax
  401ad7:       75 6b                   jne    401b44 <submitr+0x12f>
  401ad9:       48 b8 45 72 72 6f 72    movabs $0x44203a726f727245,%rax
  401ae0:       3a 20 44
  401ae3:       49 89 07                mov    %rax,(%r15)
  401ae6:       48 b8 4e 53 20 69 73    movabs $0x6e7520736920534e,%rax
  401aed:       20 75 6e
  401af0:       49 89 47 08             mov    %rax,0x8(%r15)
  401af4:       48 b8 61 62 6c 65 20    movabs $0x206f7420656c6261,%rax
  401afb:       74 6f 20
  401afe:       49 89 47 10             mov    %rax,0x10(%r15)
  401b02:       48 b8 72 65 73 6f 6c    movabs $0x2065766c6f736572,%rax
  401b09:       76 65 20
  401b0c:       49 89 47 18             mov    %rax,0x18(%r15)
  401b10:       48 b8 73 65 72 76 65    movabs $0x6120726576726573,%rax
  401b17:       72 20 61
  401b1a:       49 89 47 20             mov    %rax,0x20(%r15)
  401b1e:       41 c7 47 28 64 64 72    movl   $0x65726464,0x28(%r15)
  401b25:       65
  401b26:       66 41 c7 47 2c 73 73    movw   $0x7373,0x2c(%r15)
  401b2d:       41 c6 47 2e 00          movb   $0x0,0x2e(%r15)
  401b32:       44 89 e7                mov    %r12d,%edi
  401b35:       e8 76 f0 ff ff          call   400bb0 <close@plt>
  401b3a:       b8 ff ff ff ff          mov    $0xffffffff,%eax
  401b3f:       e9 9a 05 00 00          jmp    4020de <submitr+0x6c9>
  401b44:       48 c7 44 24 30 00 00    movq   $0x0,0x30(%rsp)
  401b4b:       00 00
  401b4d:       48 c7 44 24 38 00 00    movq   $0x0,0x38(%rsp)
  401b54:       00 00
  401b56:       66 c7 44 24 30 02 00    movw   $0x2,0x30(%rsp)
  401b5d:       48 63 50 14             movslq 0x14(%rax),%rdx
  401b61:       48 8b 40 18             mov    0x18(%rax),%rax
  401b65:       48 8d 7c 24 34          lea    0x34(%rsp),%rdi
  401b6a:       b9 0c 00 00 00          mov    $0xc,%ecx
  401b6f:       48 8b 30                mov    (%rax),%rsi
  401b72:       e8 99 f0 ff ff          call   400c10 <__memmove_chk@plt>
  401b77:       66 41 c1 cd 08          ror    $0x8,%r13w
  401b7c:       66 44 89 6c 24 32       mov    %r13w,0x32(%rsp)
  401b82:       ba 10 00 00 00          mov    $0x10,%edx
  401b87:       48 8d 74 24 30          lea    0x30(%rsp),%rsi
  401b8c:       44 89 e7                mov    %r12d,%edi
  401b8f:       e8 fc f0 ff ff          call   400c90 <connect@plt>
  401b94:       85 c0                   test   %eax,%eax
  401b96:       79 5d                   jns    401bf5 <submitr+0x1e0>
  401b98:       48 b8 45 72 72 6f 72    movabs $0x55203a726f727245,%rax
  401b9f:       3a 20 55
  401ba2:       49 89 07                mov    %rax,(%r15)
  401ba5:       48 b8 6e 61 62 6c 65    movabs $0x6f7420656c62616e,%rax
  401bac:       20 74 6f
  401baf:       49 89 47 08             mov    %rax,0x8(%r15)
  401bb3:       48 b8 20 63 6f 6e 6e    movabs $0x7463656e6e6f6320,%rax
  401bba:       65 63 74
  401bbd:       49 89 47 10             mov    %rax,0x10(%r15)
  401bc1:       48 b8 20 74 6f 20 74    movabs $0x20656874206f7420,%rax
  401bc8:       68 65 20
  401bcb:       49 89 47 18             mov    %rax,0x18(%r15)
  401bcf:       41 c7 47 20 73 65 72    movl   $0x76726573,0x20(%r15)
  401bd6:       76
  401bd7:       66 41 c7 47 24 65 72    movw   $0x7265,0x24(%r15)
  401bde:       41 c6 47 26 00          movb   $0x0,0x26(%r15)
  401be3:       44 89 e7                mov    %r12d,%edi
  401be6:       e8 c5 ef ff ff          call   400bb0 <close@plt>
  401beb:       b8 ff ff ff ff          mov    $0xffffffff,%eax
  401bf0:       e9 e9 04 00 00          jmp    4020de <submitr+0x6c9>
  401bf5:       49 c7 c1 ff ff ff ff    mov    $0xffffffffffffffff,%r9
  401bfc:       b8 00 00 00 00          mov    $0x0,%eax
  401c01:       4c 89 c9                mov    %r9,%rcx
  401c04:       48 89 df                mov    %rbx,%rdi
  401c07:       f2 ae                   repnz scas %es:(%rdi),%al
  401c09:       48 f7 d1                not    %rcx
  401c0c:       48 89 ce                mov    %rcx,%rsi
  401c0f:       4c 89 c9                mov    %r9,%rcx
  401c12:       48 8b 7c 24 08          mov    0x8(%rsp),%rdi
  401c17:       f2 ae                   repnz scas %es:(%rdi),%al
  401c19:       49 89 c8                mov    %rcx,%r8
  401c1c:       4c 89 c9                mov    %r9,%rcx
  401c1f:       48 8b 7c 24 10          mov    0x10(%rsp),%rdi
  401c24:       f2 ae                   repnz scas %es:(%rdi),%al
  401c26:       48 f7 d1                not    %rcx
  401c29:       48 89 ca                mov    %rcx,%rdx
  401c2c:       4c 89 c9                mov    %r9,%rcx
  401c2f:       48 8b 7c 24 18          mov    0x18(%rsp),%rdi
  401c34:       f2 ae                   repnz scas %es:(%rdi),%al
  401c36:       4c 29 c2                sub    %r8,%rdx
  401c39:       48 29 ca                sub    %rcx,%rdx
  401c3c:       48 8d 44 76 fd          lea    -0x3(%rsi,%rsi,2),%rax
  401c41:       48 8d 44 02 7b          lea    0x7b(%rdx,%rax,1),%rax
  401c46:       48 3d 00 20 00 00       cmp    $0x2000,%rax
  401c4c:       76 73                   jbe    401cc1 <submitr+0x2ac>
  401c4e:       48 b8 45 72 72 6f 72    movabs $0x52203a726f727245,%rax
  401c55:       3a 20 52
  401c58:       49 89 07                mov    %rax,(%r15)
  401c5b:       48 b8 65 73 75 6c 74    movabs $0x747320746c757365,%rax
  401c62:       20 73 74
  401c65:       49 89 47 08             mov    %rax,0x8(%r15)
  401c69:       48 b8 72 69 6e 67 20    movabs $0x6f6f7420676e6972,%rax
  401c70:       74 6f 6f
  401c73:       49 89 47 10             mov    %rax,0x10(%r15)
  401c77:       48 b8 20 6c 61 72 67    movabs $0x202e656772616c20,%rax
  401c7e:       65 2e 20
  401c81:       49 89 47 18             mov    %rax,0x18(%r15)
  401c85:       48 b8 49 6e 63 72 65    movabs $0x6573616572636e49,%rax
  401c8c:       61 73 65
  401c8f:       49 89 47 20             mov    %rax,0x20(%r15)
  401c93:       48 b8 20 53 55 42 4d    movabs $0x5254494d42555320,%rax
  401c9a:       49 54 52
  401c9d:       49 89 47 28             mov    %rax,0x28(%r15)
  401ca1:       48 b8 5f 4d 41 58 42    movabs $0x46554258414d5f,%rax
  401ca8:       55 46 00
  401cab:       49 89 47 30             mov    %rax,0x30(%r15)
  401caf:       44 89 e7                mov    %r12d,%edi
  401cb2:       e8 f9 ee ff ff          call   400bb0 <close@plt>
  401cb7:       b8 ff ff ff ff          mov    $0xffffffff,%eax
  401cbc:       e9 1d 04 00 00          jmp    4020de <submitr+0x6c9>
  401cc1:       48 8d 94 24 50 40 00    lea    0x4050(%rsp),%rdx
  401cc8:       00
  401cc9:       b9 00 04 00 00          mov    $0x400,%ecx
  401cce:       b8 00 00 00 00          mov    $0x0,%eax
  401cd3:       48 89 d7                mov    %rdx,%rdi
  401cd6:       f3 48 ab                rep stos %rax,%es:(%rdi)
  401cd9:       48 c7 c1 ff ff ff ff    mov    $0xffffffffffffffff,%rcx
  401ce0:       48 89 df                mov    %rbx,%rdi
  401ce3:       f2 ae                   repnz scas %es:(%rdi),%al
  401ce5:       48 89 c8                mov    %rcx,%rax
  401ce8:       48 f7 d0                not    %rax
  401ceb:       48 83 e8 01             sub    $0x1,%rax
  401cef:       85 c0                   test   %eax,%eax
  401cf1:       0f 84 90 04 00 00       je     402187 <submitr+0x772>
  401cf7:       8d 40 ff                lea    -0x1(%rax),%eax
  401cfa:       4c 8d 74 03 01          lea    0x1(%rbx,%rax,1),%r14
  401cff:       48 89 d5                mov    %rdx,%rbp
  401d02:       49 bd d9 ff 00 00 00    movabs $0x2000000000ffd9,%r13
  401d09:       00 20 00
  401d0c:       44 0f b6 03             movzbl (%rbx),%r8d
  401d10:       41 8d 40 d6             lea    -0x2a(%r8),%eax
  401d14:       3c 35                   cmp    $0x35,%al
  401d16:       77 06                   ja     401d1e <submitr+0x309>
  401d18:       49 0f a3 c5             bt     %rax,%r13
  401d1c:       72 0d                   jb     401d2b <submitr+0x316>
  401d1e:       44 89 c0                mov    %r8d,%eax
  401d21:       83 e0 df                and    $0xffffffdf,%eax
  401d24:       83 e8 41                sub    $0x41,%eax
  401d27:       3c 19                   cmp    $0x19,%al
  401d29:       77 0a                   ja     401d35 <submitr+0x320>
  401d2b:       44 88 45 00             mov    %r8b,0x0(%rbp)
  401d2f:       48 8d 6d 01             lea    0x1(%rbp),%rbp
  401d33:       eb 6c                   jmp    401da1 <submitr+0x38c>
  401d35:       41 80 f8 20             cmp    $0x20,%r8b
  401d39:       75 0a                   jne    401d45 <submitr+0x330>
  401d3b:       c6 45 00 2b             movb   $0x2b,0x0(%rbp)
  401d3f:       48 8d 6d 01             lea    0x1(%rbp),%rbp
  401d43:       eb 5c                   jmp    401da1 <submitr+0x38c>
  401d45:       41 8d 40 e0             lea    -0x20(%r8),%eax
  401d49:       3c 5f                   cmp    $0x5f,%al
  401d4b:       76 0a                   jbe    401d57 <submitr+0x342>
  401d4d:       41 80 f8 09             cmp    $0x9,%r8b
  401d51:       0f 85 a3 03 00 00       jne    4020fa <submitr+0x6e5>
  401d57:       45 0f b6 c0             movzbl %r8b,%r8d
  401d5b:       b9 60 34 40 00          mov    $0x403460,%ecx
  401d60:       ba 08 00 00 00          mov    $0x8,%edx
  401d65:       be 01 00 00 00          mov    $0x1,%esi
  401d6a:       48 8d bc 24 50 80 00    lea    0x8050(%rsp),%rdi
  401d71:       00
  401d72:       b8 00 00 00 00          mov    $0x0,%eax
  401d77:       e8 54 ef ff ff          call   400cd0 <__sprintf_chk@plt>
  401d7c:       0f b6 84 24 50 80 00    movzbl 0x8050(%rsp),%eax
  401d83:       00
  401d84:       88 45 00                mov    %al,0x0(%rbp)
  401d87:       0f b6 84 24 51 80 00    movzbl 0x8051(%rsp),%eax
  401d8e:       00
  401d8f:       88 45 01                mov    %al,0x1(%rbp)
  401d92:       0f b6 84 24 52 80 00    movzbl 0x8052(%rsp),%eax
  401d99:       00
  401d9a:       88 45 02                mov    %al,0x2(%rbp)
  401d9d:       48 8d 6d 03             lea    0x3(%rbp),%rbp
  401da1:       48 83 c3 01             add    $0x1,%rbx
  401da5:       49 39 de                cmp    %rbx,%r14
  401da8:       0f 85 5e ff ff ff       jne    401d0c <submitr+0x2f7>
  401dae:       e9 d4 03 00 00          jmp    402187 <submitr+0x772>
  401db3:       48 89 da                mov    %rbx,%rdx
  401db6:       48 89 ee                mov    %rbp,%rsi
  401db9:       44 89 e7                mov    %r12d,%edi
  401dbc:       e8 bf ed ff ff          call   400b80 <write@plt>
  401dc1:       48 85 c0                test   %rax,%rax
  401dc4:       7f 0f                   jg     401dd5 <submitr+0x3c0>
  401dc6:       e8 85 ed ff ff          call   400b50 <__errno_location@plt>
  401dcb:       83 38 04                cmpl   $0x4,(%rax)
  401dce:       75 12                   jne    401de2 <submitr+0x3cd>
  401dd0:       b8 00 00 00 00          mov    $0x0,%eax
  401dd5:       48 01 c5                add    %rax,%rbp
  401dd8:       48 29 c3                sub    %rax,%rbx
  401ddb:       75 d6                   jne    401db3 <submitr+0x39e>
  401ddd:       4d 85 ed                test   %r13,%r13
  401de0:       79 5f                   jns    401e41 <submitr+0x42c>
  401de2:       48 b8 45 72 72 6f 72    movabs $0x43203a726f727245,%rax
  401de9:       3a 20 43
  401dec:       49 89 07                mov    %rax,(%r15)
  401def:       48 b8 6c 69 65 6e 74    movabs $0x6e7520746e65696c,%rax
  401df6:       20 75 6e
  401df9:       49 89 47 08             mov    %rax,0x8(%r15)
  401dfd:       48 b8 61 62 6c 65 20    movabs $0x206f7420656c6261,%rax
  401e04:       74 6f 20
  401e07:       49 89 47 10             mov    %rax,0x10(%r15)
  401e0b:       48 b8 77 72 69 74 65    movabs $0x6f74206574697277,%rax
  401e12:       20 74 6f
  401e15:       49 89 47 18             mov    %rax,0x18(%r15)
  401e19:       48 b8 20 74 68 65 20    movabs $0x7265732065687420,%rax
  401e20:       73 65 72
  401e23:       49 89 47 20             mov    %rax,0x20(%r15)
  401e27:       41 c7 47 28 76 65 72    movl   $0x726576,0x28(%r15)
  401e2e:       00
  401e2f:       44 89 e7                mov    %r12d,%edi
  401e32:       e8 79 ed ff ff          call   400bb0 <close@plt>
  401e37:       b8 ff ff ff ff          mov    $0xffffffff,%eax
  401e3c:       e9 9d 02 00 00          jmp    4020de <submitr+0x6c9>
  401e41:       44 89 64 24 40          mov    %r12d,0x40(%rsp)
  401e46:       c7 44 24 44 00 00 00    movl   $0x0,0x44(%rsp)
  401e4d:       00
  401e4e:       48 8d 44 24 50          lea    0x50(%rsp),%rax
  401e53:       48 89 44 24 48          mov    %rax,0x48(%rsp)
  401e58:       ba 00 20 00 00          mov    $0x2000,%edx
  401e5d:       48 8d b4 24 50 20 00    lea    0x2050(%rsp),%rsi
  401e64:       00
  401e65:       48 8d 7c 24 40          lea    0x40(%rsp),%rdi
  401e6a:       e8 b4 fa ff ff          call   401923 <rio_readlineb>
  401e6f:       48 85 c0                test   %rax,%rax
  401e72:       7f 74                   jg     401ee8 <submitr+0x4d3>
  401e74:       48 b8 45 72 72 6f 72    movabs $0x43203a726f727245,%rax
  401e7b:       3a 20 43
  401e7e:       49 89 07                mov    %rax,(%r15)
  401e81:       48 b8 6c 69 65 6e 74    movabs $0x6e7520746e65696c,%rax
  401e88:       20 75 6e
  401e8b:       49 89 47 08             mov    %rax,0x8(%r15)
  401e8f:       48 b8 61 62 6c 65 20    movabs $0x206f7420656c6261,%rax
  401e96:       74 6f 20
  401e99:       49 89 47 10             mov    %rax,0x10(%r15)
  401e9d:       48 b8 72 65 61 64 20    movabs $0x7269662064616572,%rax
  401ea4:       66 69 72
  401ea7:       49 89 47 18             mov    %rax,0x18(%r15)
  401eab:       48 b8 73 74 20 68 65    movabs $0x6564616568207473,%rax
  401eb2:       61 64 65
  401eb5:       49 89 47 20             mov    %rax,0x20(%r15)
  401eb9:       48 b8 72 20 66 72 6f    movabs $0x73206d6f72662072,%rax
  401ec0:       6d 20 73
  401ec3:       49 89 47 28             mov    %rax,0x28(%r15)
  401ec7:       41 c7 47 30 65 72 76    movl   $0x65767265,0x30(%r15)
  401ece:       65
  401ecf:       66 41 c7 47 34 72 00    movw   $0x72,0x34(%r15)
  401ed6:       44 89 e7                mov    %r12d,%edi
  401ed9:       e8 d2 ec ff ff          call   400bb0 <close@plt>
  401ede:       b8 ff ff ff ff          mov    $0xffffffff,%eax
  401ee3:       e9 f6 01 00 00          jmp    4020de <submitr+0x6c9>
  401ee8:       4c 8d 84 24 50 80 00    lea    0x8050(%rsp),%r8
  401eef:       00
  401ef0:       48 8d 4c 24 2c          lea    0x2c(%rsp),%rcx
  401ef5:       48 8d 94 24 50 60 00    lea    0x6050(%rsp),%rdx
  401efc:       00
  401efd:       be 67 34 40 00          mov    $0x403467,%esi
  401f02:       48 8d bc 24 50 20 00    lea    0x2050(%rsp),%rdi
  401f09:       00
  401f0a:       b8 00 00 00 00          mov    $0x0,%eax
  401f0f:       e8 2c ed ff ff          call   400c40 <__isoc99_sscanf@plt>
  401f14:       44 8b 44 24 2c          mov    0x2c(%rsp),%r8d
  401f19:       41 81 f8 c8 00 00 00    cmp    $0xc8,%r8d
  401f20:       0f 84 be 00 00 00       je     401fe4 <submitr+0x5cf>
  401f26:       4c 8d 8c 24 50 80 00    lea    0x8050(%rsp),%r9
  401f2d:       00
  401f2e:       b9 b8 33 40 00          mov    $0x4033b8,%ecx
  401f33:       48 c7 c2 ff ff ff ff    mov    $0xffffffffffffffff,%rdx
  401f3a:       be 01 00 00 00          mov    $0x1,%esi
  401f3f:       4c 89 ff                mov    %r15,%rdi
  401f42:       b8 00 00 00 00          mov    $0x0,%eax
  401f47:       e8 84 ed ff ff          call   400cd0 <__sprintf_chk@plt>
  401f4c:       44 89 e7                mov    %r12d,%edi
  401f4f:       e8 5c ec ff ff          call   400bb0 <close@plt>
  401f54:       b8 ff ff ff ff          mov    $0xffffffff,%eax
  401f59:       e9 80 01 00 00          jmp    4020de <submitr+0x6c9>
  401f5e:       ba 00 20 00 00          mov    $0x2000,%edx
  401f63:       48 8d b4 24 50 20 00    lea    0x2050(%rsp),%rsi
  401f6a:       00
  401f6b:       48 8d 7c 24 40          lea    0x40(%rsp),%rdi
  401f70:       e8 ae f9 ff ff          call   401923 <rio_readlineb>
  401f75:       48 85 c0                test   %rax,%rax
  401f78:       7f 6a                   jg     401fe4 <submitr+0x5cf>
  401f7a:       48 b8 45 72 72 6f 72    movabs $0x43203a726f727245,%rax
  401f81:       3a 20 43
  401f84:       49 89 07                mov    %rax,(%r15)
  401f87:       48 b8 6c 69 65 6e 74    movabs $0x6e7520746e65696c,%rax
  401f8e:       20 75 6e
  401f91:       49 89 47 08             mov    %rax,0x8(%r15)
  401f95:       48 b8 61 62 6c 65 20    movabs $0x206f7420656c6261,%rax
  401f9c:       74 6f 20
  401f9f:       49 89 47 10             mov    %rax,0x10(%r15)
  401fa3:       48 b8 72 65 61 64 20    movabs $0x6165682064616572,%rax
  401faa:       68 65 61
  401fad:       49 89 47 18             mov    %rax,0x18(%r15)
  401fb1:       48 b8 64 65 72 73 20    movabs $0x6f72662073726564,%rax
  401fb8:       66 72 6f
  401fbb:       49 89 47 20             mov    %rax,0x20(%r15)
  401fbf:       48 b8 6d 20 73 65 72    movabs $0x726576726573206d,%rax
  401fc6:       76 65 72
  401fc9:       49 89 47 28             mov    %rax,0x28(%r15)
  401fcd:       41 c6 47 30 00          movb   $0x0,0x30(%r15)
  401fd2:       44 89 e7                mov    %r12d,%edi
  401fd5:       e8 d6 eb ff ff          call   400bb0 <close@plt>
  401fda:       b8 ff ff ff ff          mov    $0xffffffff,%eax
  401fdf:       e9 fa 00 00 00          jmp    4020de <submitr+0x6c9>
  401fe4:       80 bc 24 50 20 00 00    cmpb   $0xd,0x2050(%rsp)
  401feb:       0d
  401fec:       0f 85 6c ff ff ff       jne    401f5e <submitr+0x549>
  401ff2:       80 bc 24 51 20 00 00    cmpb   $0xa,0x2051(%rsp)
  401ff9:       0a
  401ffa:       0f 85 5e ff ff ff       jne    401f5e <submitr+0x549>
  402000:       80 bc 24 52 20 00 00    cmpb   $0x0,0x2052(%rsp)
  402007:       00
  402008:       0f 85 50 ff ff ff       jne    401f5e <submitr+0x549>
  40200e:       ba 00 20 00 00          mov    $0x2000,%edx
  402013:       48 8d b4 24 50 20 00    lea    0x2050(%rsp),%rsi
  40201a:       00
  40201b:       48 8d 7c 24 40          lea    0x40(%rsp),%rdi
  402020:       e8 fe f8 ff ff          call   401923 <rio_readlineb>
  402025:       48 85 c0                test   %rax,%rax
  402028:       7f 70                   jg     40209a <submitr+0x685>
  40202a:       48 b8 45 72 72 6f 72    movabs $0x43203a726f727245,%rax
  402031:       3a 20 43
  402034:       49 89 07                mov    %rax,(%r15)
  402037:       48 b8 6c 69 65 6e 74    movabs $0x6e7520746e65696c,%rax
  40203e:       20 75 6e
  402041:       49 89 47 08             mov    %rax,0x8(%r15)
  402045:       48 b8 61 62 6c 65 20    movabs $0x206f7420656c6261,%rax
  40204c:       74 6f 20
  40204f:       49 89 47 10             mov    %rax,0x10(%r15)
  402053:       48 b8 72 65 61 64 20    movabs $0x6174732064616572,%rax
  40205a:       73 74 61
  40205d:       49 89 47 18             mov    %rax,0x18(%r15)
  402061:       48 b8 74 75 73 20 6d    movabs $0x7373656d20737574,%rax
  402068:       65 73 73
  40206b:       49 89 47 20             mov    %rax,0x20(%r15)
  40206f:       48 b8 61 67 65 20 66    movabs $0x6d6f726620656761,%rax
  402076:       72 6f 6d
  402079:       49 89 47 28             mov    %rax,0x28(%r15)
  40207d:       48 b8 20 73 65 72 76    movabs $0x72657672657320,%rax
  402084:       65 72 00
  402087:       49 89 47 30             mov    %rax,0x30(%r15)
  40208b:       44 89 e7                mov    %r12d,%edi
  40208e:       e8 1d eb ff ff          call   400bb0 <close@plt>
  402093:       b8 ff ff ff ff          mov    $0xffffffff,%eax
  402098:       eb 44                   jmp    4020de <submitr+0x6c9>
  40209a:       48 8d b4 24 50 20 00    lea    0x2050(%rsp),%rsi
  4020a1:       00
  4020a2:       4c 89 ff                mov    %r15,%rdi
  4020a5:       e8 b6 ea ff ff          call   400b60 <strcpy@plt>
  4020aa:       44 89 e7                mov    %r12d,%edi
  4020ad:       e8 fe ea ff ff          call   400bb0 <close@plt>
  4020b2:       41 0f b6 17             movzbl (%r15),%edx
  4020b6:       b8 4f 00 00 00          mov    $0x4f,%eax
  4020bb:       29 d0                   sub    %edx,%eax
  4020bd:       75 15                   jne    4020d4 <submitr+0x6bf>
  4020bf:       41 0f b6 57 01          movzbl 0x1(%r15),%edx
  4020c4:       b8 4b 00 00 00          mov    $0x4b,%eax
  4020c9:       29 d0                   sub    %edx,%eax
  4020cb:       75 07                   jne    4020d4 <submitr+0x6bf>
  4020cd:       41 0f b6 47 02          movzbl 0x2(%r15),%eax
  4020d2:       f7 d8                   neg    %eax
  4020d4:       85 c0                   test   %eax,%eax
  4020d6:       0f 95 c0                setne  %al
  4020d9:       0f b6 c0                movzbl %al,%eax
  4020dc:       f7 d8                   neg    %eax
  4020de:       48 8b 8c 24 58 a0 00    mov    0xa058(%rsp),%rcx
  4020e5:       00
  4020e6:       64 48 33 0c 25 28 00    xor    %fs:0x28,%rcx
  4020ed:       00 00
  4020ef:       0f 84 0a 01 00 00       je     4021ff <submitr+0x7ea>
  4020f5:       e9 00 01 00 00          jmp    4021fa <submitr+0x7e5>
  4020fa:       48 b8 45 72 72 6f 72    movabs $0x52203a726f727245,%rax
  402101:       3a 20 52
  402104:       49 89 07                mov    %rax,(%r15)
  402107:       48 b8 65 73 75 6c 74    movabs $0x747320746c757365,%rax
  40210e:       20 73 74
  402111:       49 89 47 08             mov    %rax,0x8(%r15)
  402115:       48 b8 72 69 6e 67 20    movabs $0x6e6f6320676e6972,%rax
  40211c:       63 6f 6e
  40211f:       49 89 47 10             mov    %rax,0x10(%r15)
  402123:       48 b8 74 61 69 6e 73    movabs $0x6e6120736e696174,%rax
  40212a:       20 61 6e
  40212d:       49 89 47 18             mov    %rax,0x18(%r15)
  402131:       48 b8 20 69 6c 6c 65    movabs $0x6c6167656c6c6920,%rax
  402138:       67 61 6c
  40213b:       49 89 47 20             mov    %rax,0x20(%r15)
  40213f:       48 b8 20 6f 72 20 75    movabs $0x72706e7520726f20,%rax
  402146:       6e 70 72
  402149:       49 89 47 28             mov    %rax,0x28(%r15)
  40214d:       48 b8 69 6e 74 61 62    movabs $0x20656c6261746e69,%rax
  402154:       6c 65 20
  402157:       49 89 47 30             mov    %rax,0x30(%r15)
  40215b:       48 b8 63 68 61 72 61    movabs $0x6574636172616863,%rax
  402162:       63 74 65
  402165:       49 89 47 38             mov    %rax,0x38(%r15)
  402169:       66 41 c7 47 40 72 2e    movw   $0x2e72,0x40(%r15)
  402170:       41 c6 47 42 00          movb   $0x0,0x42(%r15)
  402175:       44 89 e7                mov    %r12d,%edi
  402178:       e8 33 ea ff ff          call   400bb0 <close@plt>
  40217d:       b8 ff ff ff ff          mov    $0xffffffff,%eax
  402182:       e9 57 ff ff ff          jmp    4020de <submitr+0x6c9>
  402187:       48 8d 9c 24 50 20 00    lea    0x2050(%rsp),%rbx
  40218e:       00
  40218f:       48 8d 84 24 50 40 00    lea    0x4050(%rsp),%rax
  402196:       00
  402197:       50                      push   %rax
  402198:       ff 74 24 20             push   0x20(%rsp)
  40219c:       4c 8b 4c 24 20          mov    0x20(%rsp),%r9
  4021a1:       4c 8b 44 24 18          mov    0x18(%rsp),%r8
  4021a6:       b9 e8 33 40 00          mov    $0x4033e8,%ecx
  4021ab:       ba 00 20 00 00          mov    $0x2000,%edx
  4021b0:       be 01 00 00 00          mov    $0x1,%esi
  4021b5:       48 89 df                mov    %rbx,%rdi
  4021b8:       b8 00 00 00 00          mov    $0x0,%eax
  4021bd:       e8 0e eb ff ff          call   400cd0 <__sprintf_chk@plt>
  4021c2:       b8 00 00 00 00          mov    $0x0,%eax
  4021c7:       48 c7 c1 ff ff ff ff    mov    $0xffffffffffffffff,%rcx
  4021ce:       48 89 df                mov    %rbx,%rdi
  4021d1:       f2 ae                   repnz scas %es:(%rdi),%al
  4021d3:       48 89 c8                mov    %rcx,%rax
  4021d6:       48 f7 d0                not    %rax
  4021d9:       4c 8d 68 ff             lea    -0x1(%rax),%r13
  4021dd:       48 83 c4 10             add    $0x10,%rsp
  4021e1:       4c 89 eb                mov    %r13,%rbx
  4021e4:       48 8d ac 24 50 20 00    lea    0x2050(%rsp),%rbp
  4021eb:       00
  4021ec:       4d 85 ed                test   %r13,%r13
  4021ef:       0f 85 be fb ff ff       jne    401db3 <submitr+0x39e>
  4021f5:       e9 47 fc ff ff          jmp    401e41 <submitr+0x42c>
  4021fa:       e8 91 e9 ff ff          call   400b90 <__stack_chk_fail@plt>
  4021ff:       48 81 c4 68 a0 00 00    add    $0xa068,%rsp
  402206:       5b                      pop    %rbx
  402207:       5d                      pop    %rbp
  402208:       41 5c                   pop    %r12
  40220a:       41 5d                   pop    %r13
  40220c:       41 5e                   pop    %r14
  40220e:       41 5f                   pop    %r15
  402210:       c3                      ret

0000000000402211 <init_timeout>:
  402211:       85 ff                   test   %edi,%edi
  402213:       74 22                   je     402237 <init_timeout+0x26>
  402215:       53                      push   %rbx
  402216:       89 fb                   mov    %edi,%ebx
  402218:       be f5 18 40 00          mov    $0x4018f5,%esi
  40221d:       bf 0e 00 00 00          mov    $0xe,%edi
  402222:       e8 c9 e9 ff ff          call   400bf0 <signal@plt>
  402227:       85 db                   test   %ebx,%ebx
  402229:       bf 00 00 00 00          mov    $0x0,%edi
  40222e:       0f 49 fb                cmovns %ebx,%edi
  402231:       e8 6a e9 ff ff          call   400ba0 <alarm@plt>
  402236:       5b                      pop    %rbx
  402237:       f3 c3                   repz ret

0000000000402239 <init_driver>:
  402239:       55                      push   %rbp
  40223a:       53                      push   %rbx
  40223b:       48 83 ec 28             sub    $0x28,%rsp
  40223f:       48 89 fd                mov    %rdi,%rbp
  402242:       64 48 8b 04 25 28 00    mov    %fs:0x28,%rax
  402249:       00 00
  40224b:       48 89 44 24 18          mov    %rax,0x18(%rsp)
  402250:       31 c0                   xor    %eax,%eax
  402252:       be 01 00 00 00          mov    $0x1,%esi
  402257:       bf 0d 00 00 00          mov    $0xd,%edi
  40225c:       e8 8f e9 ff ff          call   400bf0 <signal@plt>
  402261:       be 01 00 00 00          mov    $0x1,%esi
  402266:       bf 1d 00 00 00          mov    $0x1d,%edi
  40226b:       e8 80 e9 ff ff          call   400bf0 <signal@plt>
  402270:       be 01 00 00 00          mov    $0x1,%esi
  402275:       bf 1d 00 00 00          mov    $0x1d,%edi
  40227a:       e8 71 e9 ff ff          call   400bf0 <signal@plt>
  40227f:       ba 00 00 00 00          mov    $0x0,%edx
  402284:       be 01 00 00 00          mov    $0x1,%esi
  402289:       bf 02 00 00 00          mov    $0x2,%edi
  40228e:       e8 4d ea ff ff          call   400ce0 <socket@plt>
  402293:       85 c0                   test   %eax,%eax
  402295:       79 4f                   jns    4022e6 <init_driver+0xad>
  402297:       48 b8 45 72 72 6f 72    movabs $0x43203a726f727245,%rax
  40229e:       3a 20 43
  4022a1:       48 89 45 00             mov    %rax,0x0(%rbp)
  4022a5:       48 b8 6c 69 65 6e 74    movabs $0x6e7520746e65696c,%rax
  4022ac:       20 75 6e
  4022af:       48 89 45 08             mov    %rax,0x8(%rbp)
  4022b3:       48 b8 61 62 6c 65 20    movabs $0x206f7420656c6261,%rax
  4022ba:       74 6f 20
  4022bd:       48 89 45 10             mov    %rax,0x10(%rbp)
  4022c1:       48 b8 63 72 65 61 74    movabs $0x7320657461657263,%rax
  4022c8:       65 20 73
  4022cb:       48 89 45 18             mov    %rax,0x18(%rbp)
  4022cf:       c7 45 20 6f 63 6b 65    movl   $0x656b636f,0x20(%rbp)
  4022d6:       66 c7 45 24 74 00       movw   $0x74,0x24(%rbp)
  4022dc:       b8 ff ff ff ff          mov    $0xffffffff,%eax
  4022e1:       e9 0c 01 00 00          jmp    4023f2 <init_driver+0x1b9>
  4022e6:       89 c3                   mov    %eax,%ebx
  4022e8:       bf 78 34 40 00          mov    $0x403478,%edi
  4022ed:       e8 0e e9 ff ff          call   400c00 <gethostbyname@plt>
  4022f2:       48 85 c0                test   %rax,%rax
  4022f5:       75 68                   jne    40235f <init_driver+0x126>
  4022f7:       48 b8 45 72 72 6f 72    movabs $0x44203a726f727245,%rax
  4022fe:       3a 20 44
  402301:       48 89 45 00             mov    %rax,0x0(%rbp)
  402305:       48 b8 4e 53 20 69 73    movabs $0x6e7520736920534e,%rax
  40230c:       20 75 6e
  40230f:       48 89 45 08             mov    %rax,0x8(%rbp)
  402313:       48 b8 61 62 6c 65 20    movabs $0x206f7420656c6261,%rax
  40231a:       74 6f 20
  40231d:       48 89 45 10             mov    %rax,0x10(%rbp)
  402321:       48 b8 72 65 73 6f 6c    movabs $0x2065766c6f736572,%rax
  402328:       76 65 20
  40232b:       48 89 45 18             mov    %rax,0x18(%rbp)
  40232f:       48 b8 73 65 72 76 65    movabs $0x6120726576726573,%rax
  402336:       72 20 61
  402339:       48 89 45 20             mov    %rax,0x20(%rbp)
  40233d:       c7 45 28 64 64 72 65    movl   $0x65726464,0x28(%rbp)
  402344:       66 c7 45 2c 73 73       movw   $0x7373,0x2c(%rbp)
  40234a:       c6 45 2e 00             movb   $0x0,0x2e(%rbp)
  40234e:       89 df                   mov    %ebx,%edi
  402350:       e8 5b e8 ff ff          call   400bb0 <close@plt>
  402355:       b8 ff ff ff ff          mov    $0xffffffff,%eax
  40235a:       e9 93 00 00 00          jmp    4023f2 <init_driver+0x1b9>
  40235f:       48 c7 04 24 00 00 00    movq   $0x0,(%rsp)
  402366:       00
  402367:       48 c7 44 24 08 00 00    movq   $0x0,0x8(%rsp)
  40236e:       00 00
  402370:       66 c7 04 24 02 00       movw   $0x2,(%rsp)
  402376:       48 63 50 14             movslq 0x14(%rax),%rdx
  40237a:       48 8b 40 18             mov    0x18(%rax),%rax
  40237e:       48 8d 7c 24 04          lea    0x4(%rsp),%rdi
  402383:       b9 0c 00 00 00          mov    $0xc,%ecx
  402388:       48 8b 30                mov    (%rax),%rsi
  40238b:       e8 80 e8 ff ff          call   400c10 <__memmove_chk@plt>
  402390:       66 c7 44 24 02 3b 6e    movw   $0x6e3b,0x2(%rsp)
  402397:       ba 10 00 00 00          mov    $0x10,%edx
  40239c:       48 89 e6                mov    %rsp,%rsi
  40239f:       89 df                   mov    %ebx,%edi
  4023a1:       e8 ea e8 ff ff          call   400c90 <connect@plt>
  4023a6:       85 c0                   test   %eax,%eax
  4023a8:       79 32                   jns    4023dc <init_driver+0x1a3>
  4023aa:       41 b8 78 34 40 00       mov    $0x403478,%r8d
  4023b0:       b9 38 34 40 00          mov    $0x403438,%ecx
  4023b5:       48 c7 c2 ff ff ff ff    mov    $0xffffffffffffffff,%rdx
  4023bc:       be 01 00 00 00          mov    $0x1,%esi
  4023c1:       48 89 ef                mov    %rbp,%rdi
  4023c4:       b8 00 00 00 00          mov    $0x0,%eax
  4023c9:       e8 02 e9 ff ff          call   400cd0 <__sprintf_chk@plt>
  4023ce:       89 df                   mov    %ebx,%edi
  4023d0:       e8 db e7 ff ff          call   400bb0 <close@plt>
  4023d5:       b8 ff ff ff ff          mov    $0xffffffff,%eax
  4023da:       eb 16                   jmp    4023f2 <init_driver+0x1b9>
  4023dc:       89 df                   mov    %ebx,%edi
  4023de:       e8 cd e7 ff ff          call   400bb0 <close@plt>
  4023e3:       66 c7 45 00 4f 4b       movw   $0x4b4f,0x0(%rbp)
  4023e9:       c6 45 02 00             movb   $0x0,0x2(%rbp)
  4023ed:       b8 00 00 00 00          mov    $0x0,%eax
  4023f2:       48 8b 4c 24 18          mov    0x18(%rsp),%rcx
  4023f7:       64 48 33 0c 25 28 00    xor    %fs:0x28,%rcx
  4023fe:       00 00
  402400:       74 05                   je     402407 <init_driver+0x1ce>
  402402:       e8 89 e7 ff ff          call   400b90 <__stack_chk_fail@plt>
  402407:       48 83 c4 28             add    $0x28,%rsp
  40240b:       5b                      pop    %rbx
  40240c:       5d                      pop    %rbp
  40240d:       c3                      ret

000000000040240e <driver_post>:
  40240e:       53                      push   %rbx
  40240f:       48 89 cb                mov    %rcx,%rbx
  402412:       85 d2                   test   %edx,%edx
  402414:       74 27                   je     40243d <driver_post+0x2f>
  402416:       48 89 f2                mov    %rsi,%rdx
  402419:       be 8b 34 40 00          mov    $0x40348b,%esi
  40241e:       bf 01 00 00 00          mov    $0x1,%edi
  402423:       b8 00 00 00 00          mov    $0x0,%eax
  402428:       e8 23 e8 ff ff          call   400c50 <__printf_chk@plt>
  40242d:       66 c7 03 4f 4b          movw   $0x4b4f,(%rbx)
  402432:       c6 43 02 00             movb   $0x0,0x2(%rbx)
  402436:       b8 00 00 00 00          mov    $0x0,%eax
  40243b:       eb 43                   jmp    402480 <driver_post+0x72>
  40243d:       48 85 ff                test   %rdi,%rdi
  402440:       74 30                   je     402472 <driver_post+0x64>
  402442:       80 3f 00                cmpb   $0x0,(%rdi)
  402445:       74 2b                   je     402472 <driver_post+0x64>
  402447:       48 83 ec 08             sub    $0x8,%rsp
  40244b:       51                      push   %rcx
  40244c:       49 89 f1                mov    %rsi,%r9
  40244f:       41 b8 a2 34 40 00       mov    $0x4034a2,%r8d
  402455:       48 89 f9                mov    %rdi,%rcx
  402458:       ba aa 34 40 00          mov    $0x4034aa,%edx
  40245d:       be 6e 3b 00 00          mov    $0x3b6e,%esi
  402462:       bf 78 34 40 00          mov    $0x403478,%edi
  402467:       e8 a9 f5 ff ff          call   401a15 <submitr>
  40246c:       48 83 c4 10             add    $0x10,%rsp
  402470:       eb 0e                   jmp    402480 <driver_post+0x72>
  402472:       66 c7 03 4f 4b          movw   $0x4b4f,(%rbx)
  402477:       c6 43 02 00             movb   $0x0,0x2(%rbx)
  40247b:       b8 00 00 00 00          mov    $0x0,%eax
  402480:       5b                      pop    %rbx
  402481:       c3                      ret
  402482:       66 2e 0f 1f 84 00 00    cs nopw 0x0(%rax,%rax,1)
  402489:       00 00 00
  40248c:       0f 1f 40 00             nopl   0x0(%rax)

0000000000402490 <__libc_csu_init>:
  402490:       41 57                   push   %r15
  402492:       41 56                   push   %r14
  402494:       41 89 ff                mov    %edi,%r15d
  402497:       41 55                   push   %r13
  402499:       41 54                   push   %r12
  40249b:       4c 8d 25 6e 19 20 00    lea    0x20196e(%rip),%r12        # 603e10 <__frame_dummy_init_array_entry>
  4024a2:       55                      push   %rbp
  4024a3:       48 8d 2d 6e 19 20 00    lea    0x20196e(%rip),%rbp        # 603e18 <__do_global_dtors_aux_fini_array_entry>
  4024aa:       53                      push   %rbx
  4024ab:       49 89 f6                mov    %rsi,%r14
  4024ae:       49 89 d5                mov    %rdx,%r13
  4024b1:       4c 29 e5                sub    %r12,%rbp
  4024b4:       48 83 ec 08             sub    $0x8,%rsp
  4024b8:       48 c1 fd 03             sar    $0x3,%rbp
  4024bc:       e8 3f e6 ff ff          call   400b00 <_init>
  4024c1:       48 85 ed                test   %rbp,%rbp
  4024c4:       74 20                   je     4024e6 <__libc_csu_init+0x56>
  4024c6:       31 db                   xor    %ebx,%ebx
  4024c8:       0f 1f 84 00 00 00 00    nopl   0x0(%rax,%rax,1)
  4024cf:       00
  4024d0:       4c 89 ea                mov    %r13,%rdx
  4024d3:       4c 89 f6                mov    %r14,%rsi
  4024d6:       44 89 ff                mov    %r15d,%edi
  4024d9:       41 ff 14 dc             call   *(%r12,%rbx,8)
  4024dd:       48 83 c3 01             add    $0x1,%rbx
  4024e1:       48 39 eb                cmp    %rbp,%rbx
  4024e4:       75 ea                   jne    4024d0 <__libc_csu_init+0x40>
  4024e6:       48 83 c4 08             add    $0x8,%rsp
  4024ea:       5b                      pop    %rbx
  4024eb:       5d                      pop    %rbp
  4024ec:       41 5c                   pop    %r12
  4024ee:       41 5d                   pop    %r13
  4024f0:       41 5e                   pop    %r14
  4024f2:       41 5f                   pop    %r15
  4024f4:       c3                      ret
  4024f5:       90                      nop
  4024f6:       66 2e 0f 1f 84 00 00    cs nopw 0x0(%rax,%rax,1)
  4024fd:       00 00 00

0000000000402500 <__libc_csu_fini>:
  402500:       f3 c3                   repz ret

Disassembly of section .fini:

0000000000402504 <_fini>:
  402504:       48 83 ec 08             sub    $0x8,%rsp
  402508:       48 83 c4 08             add    $0x8,%rsp
  40250c:       c3                      ret
